ARM GAS  C:\Users\ANDRES~1\AppData\Local\Temp\cc2ZpS1M.s 			page 1


   1              		.syntax unified
   2              		.cpu cortex-m0
   3              		.fpu softvfp
   4              		.eabi_attribute 20, 1
   5              		.eabi_attribute 21, 1
   6              		.eabi_attribute 23, 3
   7              		.eabi_attribute 24, 1
   8              		.eabi_attribute 25, 1
   9              		.eabi_attribute 26, 1
  10              		.eabi_attribute 30, 6
  11              		.eabi_attribute 34, 0
  12              		.eabi_attribute 18, 4
  13              		.thumb
  14              		.syntax unified
  15              		.file	"cyfitter_cfg.c"
  16              		.text
  17              	.Ltext0:
  18              		.cfi_sections	.debug_frame
  19              		.section	.text.CYMEMZERO,"ax",%progbits
  20              		.align	2
  21              		.code	16
  22              		.thumb_func
  23              		.type	CYMEMZERO, %function
  24              	CYMEMZERO:
  25              	.LFB0:
  26              		.file 1 "Generated_Source\\PSoC4\\cyfitter_cfg.c"
   1:Generated_Source\PSoC4/cyfitter_cfg.c **** 
   2:Generated_Source\PSoC4/cyfitter_cfg.c **** /*******************************************************************************
   3:Generated_Source\PSoC4/cyfitter_cfg.c **** * File Name: cyfitter_cfg.c
   4:Generated_Source\PSoC4/cyfitter_cfg.c **** * 
   5:Generated_Source\PSoC4/cyfitter_cfg.c **** * PSoC Creator  4.2
   6:Generated_Source\PSoC4/cyfitter_cfg.c **** *
   7:Generated_Source\PSoC4/cyfitter_cfg.c **** * Description:
   8:Generated_Source\PSoC4/cyfitter_cfg.c **** * This file contains device initialization code.
   9:Generated_Source\PSoC4/cyfitter_cfg.c **** * Except for the user defined sections in CyClockStartupError(), this file should not be modified.
  10:Generated_Source\PSoC4/cyfitter_cfg.c **** * This file is automatically generated by PSoC Creator.
  11:Generated_Source\PSoC4/cyfitter_cfg.c **** *
  12:Generated_Source\PSoC4/cyfitter_cfg.c **** ********************************************************************************
  13:Generated_Source\PSoC4/cyfitter_cfg.c **** * Copyright (c) 2007-2018 Cypress Semiconductor.  All rights reserved.
  14:Generated_Source\PSoC4/cyfitter_cfg.c **** * You may use this file only in accordance with the license, terms, conditions, 
  15:Generated_Source\PSoC4/cyfitter_cfg.c **** * disclaimers, and limitations in the end user license agreement accompanying 
  16:Generated_Source\PSoC4/cyfitter_cfg.c **** * the software package with which this file was provided.
  17:Generated_Source\PSoC4/cyfitter_cfg.c **** ********************************************************************************/
  18:Generated_Source\PSoC4/cyfitter_cfg.c **** 
  19:Generated_Source\PSoC4/cyfitter_cfg.c **** #include <string.h>
  20:Generated_Source\PSoC4/cyfitter_cfg.c **** #include "cytypes.h"
  21:Generated_Source\PSoC4/cyfitter_cfg.c **** #include "cydevice_trm.h"
  22:Generated_Source\PSoC4/cyfitter_cfg.c **** #include "cyfitter.h"
  23:Generated_Source\PSoC4/cyfitter_cfg.c **** #include "CyLib.h"
  24:Generated_Source\PSoC4/cyfitter_cfg.c **** #include "cyfitter_cfg.h"
  25:Generated_Source\PSoC4/cyfitter_cfg.c **** 
  26:Generated_Source\PSoC4/cyfitter_cfg.c **** 
  27:Generated_Source\PSoC4/cyfitter_cfg.c **** #if defined(__GNUC__) || defined(__ARMCC_VERSION)
  28:Generated_Source\PSoC4/cyfitter_cfg.c ****     #define CYPACKED 
  29:Generated_Source\PSoC4/cyfitter_cfg.c ****     #define CYPACKED_ATTR __attribute__ ((packed))
  30:Generated_Source\PSoC4/cyfitter_cfg.c ****     #define CYALIGNED __attribute__ ((aligned))
  31:Generated_Source\PSoC4/cyfitter_cfg.c ****     #define CY_CFG_UNUSED __attribute__ ((unused))
ARM GAS  C:\Users\ANDRES~1\AppData\Local\Temp\cc2ZpS1M.s 			page 2


  32:Generated_Source\PSoC4/cyfitter_cfg.c ****     #ifndef CY_CFG_SECTION
  33:Generated_Source\PSoC4/cyfitter_cfg.c ****         #define CY_CFG_SECTION __attribute__ ((section(".psocinit")))
  34:Generated_Source\PSoC4/cyfitter_cfg.c ****     #endif
  35:Generated_Source\PSoC4/cyfitter_cfg.c ****     
  36:Generated_Source\PSoC4/cyfitter_cfg.c ****     #if defined(__ARMCC_VERSION)
  37:Generated_Source\PSoC4/cyfitter_cfg.c ****         #define CY_CFG_MEMORY_BARRIER() __memory_changed()
  38:Generated_Source\PSoC4/cyfitter_cfg.c ****     #else
  39:Generated_Source\PSoC4/cyfitter_cfg.c ****         #define CY_CFG_MEMORY_BARRIER() __sync_synchronize()
  40:Generated_Source\PSoC4/cyfitter_cfg.c ****     #endif
  41:Generated_Source\PSoC4/cyfitter_cfg.c ****     
  42:Generated_Source\PSoC4/cyfitter_cfg.c **** #elif defined(__ICCARM__)
  43:Generated_Source\PSoC4/cyfitter_cfg.c ****     #include <intrinsics.h>
  44:Generated_Source\PSoC4/cyfitter_cfg.c **** 
  45:Generated_Source\PSoC4/cyfitter_cfg.c ****     #define CYPACKED __packed
  46:Generated_Source\PSoC4/cyfitter_cfg.c ****     #define CYPACKED_ATTR 
  47:Generated_Source\PSoC4/cyfitter_cfg.c ****     #define CYALIGNED _Pragma("data_alignment=4")
  48:Generated_Source\PSoC4/cyfitter_cfg.c ****     #define CY_CFG_UNUSED _Pragma("diag_suppress=Pe177")
  49:Generated_Source\PSoC4/cyfitter_cfg.c ****     #define CY_CFG_SECTION _Pragma("location=\".psocinit\"")
  50:Generated_Source\PSoC4/cyfitter_cfg.c ****     
  51:Generated_Source\PSoC4/cyfitter_cfg.c ****     #define CY_CFG_MEMORY_BARRIER() __DMB()
  52:Generated_Source\PSoC4/cyfitter_cfg.c ****     
  53:Generated_Source\PSoC4/cyfitter_cfg.c **** #else
  54:Generated_Source\PSoC4/cyfitter_cfg.c ****     #error Unsupported toolchain
  55:Generated_Source\PSoC4/cyfitter_cfg.c **** #endif
  56:Generated_Source\PSoC4/cyfitter_cfg.c **** 
  57:Generated_Source\PSoC4/cyfitter_cfg.c **** #ifndef CYCODE
  58:Generated_Source\PSoC4/cyfitter_cfg.c ****     #define CYCODE
  59:Generated_Source\PSoC4/cyfitter_cfg.c **** #endif
  60:Generated_Source\PSoC4/cyfitter_cfg.c **** #ifndef CYDATA
  61:Generated_Source\PSoC4/cyfitter_cfg.c ****     #define CYDATA
  62:Generated_Source\PSoC4/cyfitter_cfg.c **** #endif
  63:Generated_Source\PSoC4/cyfitter_cfg.c **** #ifndef CYFAR
  64:Generated_Source\PSoC4/cyfitter_cfg.c ****     #define CYFAR
  65:Generated_Source\PSoC4/cyfitter_cfg.c **** #endif
  66:Generated_Source\PSoC4/cyfitter_cfg.c **** #ifndef CYXDATA
  67:Generated_Source\PSoC4/cyfitter_cfg.c ****     #define CYXDATA
  68:Generated_Source\PSoC4/cyfitter_cfg.c **** #endif
  69:Generated_Source\PSoC4/cyfitter_cfg.c **** 
  70:Generated_Source\PSoC4/cyfitter_cfg.c **** 
  71:Generated_Source\PSoC4/cyfitter_cfg.c **** CY_CFG_UNUSED
  72:Generated_Source\PSoC4/cyfitter_cfg.c **** static void CYMEMZERO(void *s, size_t n);
  73:Generated_Source\PSoC4/cyfitter_cfg.c **** CY_CFG_UNUSED
  74:Generated_Source\PSoC4/cyfitter_cfg.c **** static void CYMEMZERO(void *s, size_t n)
  75:Generated_Source\PSoC4/cyfitter_cfg.c **** {
  27              		.loc 1 75 0
  28              		.cfi_startproc
  29              		@ args = 0, pretend = 0, frame = 8
  30              		@ frame_needed = 1, uses_anonymous_args = 0
  31 0000 80B5     		push	{r7, lr}
  32              		.cfi_def_cfa_offset 8
  33              		.cfi_offset 7, -8
  34              		.cfi_offset 14, -4
  35 0002 82B0     		sub	sp, sp, #8
  36              		.cfi_def_cfa_offset 16
  37 0004 00AF     		add	r7, sp, #0
  38              		.cfi_def_cfa_register 7
  39 0006 7860     		str	r0, [r7, #4]
ARM GAS  C:\Users\ANDRES~1\AppData\Local\Temp\cc2ZpS1M.s 			page 3


  40 0008 3960     		str	r1, [r7]
  76:Generated_Source\PSoC4/cyfitter_cfg.c **** 	(void)memset(s, 0, n);
  41              		.loc 1 76 0
  42 000a 3A68     		ldr	r2, [r7]
  43 000c 7B68     		ldr	r3, [r7, #4]
  44 000e 0021     		movs	r1, #0
  45 0010 1800     		movs	r0, r3
  46 0012 FFF7FEFF 		bl	memset
  77:Generated_Source\PSoC4/cyfitter_cfg.c **** }
  47              		.loc 1 77 0
  48 0016 C046     		nop
  49 0018 BD46     		mov	sp, r7
  50 001a 02B0     		add	sp, sp, #8
  51              		@ sp needed
  52 001c 80BD     		pop	{r7, pc}
  53              		.cfi_endproc
  54              	.LFE0:
  55              		.size	CYMEMZERO, .-CYMEMZERO
  56 001e C046     		.section	.text.CYCONFIGCPY,"ax",%progbits
  57              		.align	2
  58              		.code	16
  59              		.thumb_func
  60              		.type	CYCONFIGCPY, %function
  61              	CYCONFIGCPY:
  62              	.LFB1:
  78:Generated_Source\PSoC4/cyfitter_cfg.c **** CY_CFG_UNUSED
  79:Generated_Source\PSoC4/cyfitter_cfg.c **** static void CYCONFIGCPY(void *dest, const void *src, size_t n);
  80:Generated_Source\PSoC4/cyfitter_cfg.c **** CY_CFG_UNUSED
  81:Generated_Source\PSoC4/cyfitter_cfg.c **** static void CYCONFIGCPY(void *dest, const void *src, size_t n)
  82:Generated_Source\PSoC4/cyfitter_cfg.c **** {
  63              		.loc 1 82 0
  64              		.cfi_startproc
  65              		@ args = 0, pretend = 0, frame = 16
  66              		@ frame_needed = 1, uses_anonymous_args = 0
  67 0000 80B5     		push	{r7, lr}
  68              		.cfi_def_cfa_offset 8
  69              		.cfi_offset 7, -8
  70              		.cfi_offset 14, -4
  71 0002 84B0     		sub	sp, sp, #16
  72              		.cfi_def_cfa_offset 24
  73 0004 00AF     		add	r7, sp, #0
  74              		.cfi_def_cfa_register 7
  75 0006 F860     		str	r0, [r7, #12]
  76 0008 B960     		str	r1, [r7, #8]
  77 000a 7A60     		str	r2, [r7, #4]
  83:Generated_Source\PSoC4/cyfitter_cfg.c **** 	(void)memcpy(dest, src, n);
  78              		.loc 1 83 0
  79 000c 7A68     		ldr	r2, [r7, #4]
  80 000e B968     		ldr	r1, [r7, #8]
  81 0010 FB68     		ldr	r3, [r7, #12]
  82 0012 1800     		movs	r0, r3
  83 0014 FFF7FEFF 		bl	memcpy
  84:Generated_Source\PSoC4/cyfitter_cfg.c **** }
  84              		.loc 1 84 0
  85 0018 C046     		nop
  86 001a BD46     		mov	sp, r7
  87 001c 04B0     		add	sp, sp, #16
ARM GAS  C:\Users\ANDRES~1\AppData\Local\Temp\cc2ZpS1M.s 			page 4


  88              		@ sp needed
  89 001e 80BD     		pop	{r7, pc}
  90              		.cfi_endproc
  91              	.LFE1:
  92              		.size	CYCONFIGCPY, .-CYCONFIGCPY
  93              		.section	.text.CYCONFIGCPYCODE,"ax",%progbits
  94              		.align	2
  95              		.code	16
  96              		.thumb_func
  97              		.type	CYCONFIGCPYCODE, %function
  98              	CYCONFIGCPYCODE:
  99              	.LFB2:
  85:Generated_Source\PSoC4/cyfitter_cfg.c **** CY_CFG_UNUSED
  86:Generated_Source\PSoC4/cyfitter_cfg.c **** static void CYCONFIGCPYCODE(void *dest, const void *src, size_t n);
  87:Generated_Source\PSoC4/cyfitter_cfg.c **** CY_CFG_UNUSED
  88:Generated_Source\PSoC4/cyfitter_cfg.c **** static void CYCONFIGCPYCODE(void *dest, const void *src, size_t n)
  89:Generated_Source\PSoC4/cyfitter_cfg.c **** {
 100              		.loc 1 89 0
 101              		.cfi_startproc
 102              		@ args = 0, pretend = 0, frame = 16
 103              		@ frame_needed = 1, uses_anonymous_args = 0
 104 0000 80B5     		push	{r7, lr}
 105              		.cfi_def_cfa_offset 8
 106              		.cfi_offset 7, -8
 107              		.cfi_offset 14, -4
 108 0002 84B0     		sub	sp, sp, #16
 109              		.cfi_def_cfa_offset 24
 110 0004 00AF     		add	r7, sp, #0
 111              		.cfi_def_cfa_register 7
 112 0006 F860     		str	r0, [r7, #12]
 113 0008 B960     		str	r1, [r7, #8]
 114 000a 7A60     		str	r2, [r7, #4]
  90:Generated_Source\PSoC4/cyfitter_cfg.c **** 	(void)memcpy(dest, src, n);
 115              		.loc 1 90 0
 116 000c 7A68     		ldr	r2, [r7, #4]
 117 000e B968     		ldr	r1, [r7, #8]
 118 0010 FB68     		ldr	r3, [r7, #12]
 119 0012 1800     		movs	r0, r3
 120 0014 FFF7FEFF 		bl	memcpy
  91:Generated_Source\PSoC4/cyfitter_cfg.c **** }
 121              		.loc 1 91 0
 122 0018 C046     		nop
 123 001a BD46     		mov	sp, r7
 124 001c 04B0     		add	sp, sp, #16
 125              		@ sp needed
 126 001e 80BD     		pop	{r7, pc}
 127              		.cfi_endproc
 128              	.LFE2:
 129              		.size	CYCONFIGCPYCODE, .-CYCONFIGCPYCODE
 130              		.section	.text.cfg_write_bytes32,"ax",%progbits
 131              		.align	2
 132              		.code	16
 133              		.thumb_func
 134              		.type	cfg_write_bytes32, %function
 135              	cfg_write_bytes32:
 136              	.LFB3:
  92:Generated_Source\PSoC4/cyfitter_cfg.c **** 
ARM GAS  C:\Users\ANDRES~1\AppData\Local\Temp\cc2ZpS1M.s 			page 5


  93:Generated_Source\PSoC4/cyfitter_cfg.c **** 
  94:Generated_Source\PSoC4/cyfitter_cfg.c **** 
  95:Generated_Source\PSoC4/cyfitter_cfg.c **** 
  96:Generated_Source\PSoC4/cyfitter_cfg.c **** /* Clock startup error codes                                                   */
  97:Generated_Source\PSoC4/cyfitter_cfg.c **** #define CYCLOCKSTART_NO_ERROR    0u
  98:Generated_Source\PSoC4/cyfitter_cfg.c **** #define CYCLOCKSTART_XTAL_ERROR  1u
  99:Generated_Source\PSoC4/cyfitter_cfg.c **** #define CYCLOCKSTART_32KHZ_ERROR 2u
 100:Generated_Source\PSoC4/cyfitter_cfg.c **** #define CYCLOCKSTART_PLL_ERROR   3u
 101:Generated_Source\PSoC4/cyfitter_cfg.c **** #define CYCLOCKSTART_FLL_ERROR   4u
 102:Generated_Source\PSoC4/cyfitter_cfg.c **** #define CYCLOCKSTART_WCO_ERROR   5u
 103:Generated_Source\PSoC4/cyfitter_cfg.c **** 
 104:Generated_Source\PSoC4/cyfitter_cfg.c **** 
 105:Generated_Source\PSoC4/cyfitter_cfg.c **** #ifdef CY_NEED_CYCLOCKSTARTUPERROR
 106:Generated_Source\PSoC4/cyfitter_cfg.c **** /*******************************************************************************
 107:Generated_Source\PSoC4/cyfitter_cfg.c **** * Function Name: CyClockStartupError
 108:Generated_Source\PSoC4/cyfitter_cfg.c **** ********************************************************************************
 109:Generated_Source\PSoC4/cyfitter_cfg.c **** * Summary:
 110:Generated_Source\PSoC4/cyfitter_cfg.c **** *  If an error is encountered during clock configuration (crystal startup error,
 111:Generated_Source\PSoC4/cyfitter_cfg.c **** *  PLL lock error, etc.), the system will end up here.  Unless reimplemented by
 112:Generated_Source\PSoC4/cyfitter_cfg.c **** *  the customer, this function will stop in an infinite loop.
 113:Generated_Source\PSoC4/cyfitter_cfg.c **** *
 114:Generated_Source\PSoC4/cyfitter_cfg.c **** * Parameters:
 115:Generated_Source\PSoC4/cyfitter_cfg.c **** *   void
 116:Generated_Source\PSoC4/cyfitter_cfg.c **** *
 117:Generated_Source\PSoC4/cyfitter_cfg.c **** * Return:
 118:Generated_Source\PSoC4/cyfitter_cfg.c **** *   void
 119:Generated_Source\PSoC4/cyfitter_cfg.c **** *
 120:Generated_Source\PSoC4/cyfitter_cfg.c **** *******************************************************************************/
 121:Generated_Source\PSoC4/cyfitter_cfg.c **** CY_CFG_UNUSED
 122:Generated_Source\PSoC4/cyfitter_cfg.c **** static void CyClockStartupError(uint8 errorCode);
 123:Generated_Source\PSoC4/cyfitter_cfg.c **** CY_CFG_UNUSED
 124:Generated_Source\PSoC4/cyfitter_cfg.c **** static void CyClockStartupError(uint8 errorCode)
 125:Generated_Source\PSoC4/cyfitter_cfg.c **** {
 126:Generated_Source\PSoC4/cyfitter_cfg.c ****     /* To remove the compiler warning if errorCode not used.                */
 127:Generated_Source\PSoC4/cyfitter_cfg.c ****     errorCode = errorCode;
 128:Generated_Source\PSoC4/cyfitter_cfg.c **** 
 129:Generated_Source\PSoC4/cyfitter_cfg.c ****     /* If we have a clock startup error (bad MHz crystal, PLL lock, etc.),  */
 130:Generated_Source\PSoC4/cyfitter_cfg.c ****     /* we will end up here to allow the customer to implement something to  */
 131:Generated_Source\PSoC4/cyfitter_cfg.c ****     /* deal with the clock condition.                                       */
 132:Generated_Source\PSoC4/cyfitter_cfg.c **** 
 133:Generated_Source\PSoC4/cyfitter_cfg.c **** #ifdef CY_CFG_CLOCK_STARTUP_ERROR_CALLBACK
 134:Generated_Source\PSoC4/cyfitter_cfg.c ****     CY_CFG_Clock_Startup_ErrorCallback();
 135:Generated_Source\PSoC4/cyfitter_cfg.c **** #else
 136:Generated_Source\PSoC4/cyfitter_cfg.c ****     /*  If not using CY_CFG_CLOCK_STARTUP_ERROR_CALLBACK, place your clock startup code here. */
 137:Generated_Source\PSoC4/cyfitter_cfg.c ****     /* `#START CyClockStartupError` */
 138:Generated_Source\PSoC4/cyfitter_cfg.c **** 
 139:Generated_Source\PSoC4/cyfitter_cfg.c **** 
 140:Generated_Source\PSoC4/cyfitter_cfg.c **** 
 141:Generated_Source\PSoC4/cyfitter_cfg.c ****     /* `#END` */
 142:Generated_Source\PSoC4/cyfitter_cfg.c **** 
 143:Generated_Source\PSoC4/cyfitter_cfg.c ****     while(1) {}
 144:Generated_Source\PSoC4/cyfitter_cfg.c **** #endif /* CY_CFG_CLOCK_STARTUP_ERROR_CALLBACK */
 145:Generated_Source\PSoC4/cyfitter_cfg.c **** }
 146:Generated_Source\PSoC4/cyfitter_cfg.c **** #endif
 147:Generated_Source\PSoC4/cyfitter_cfg.c **** 
 148:Generated_Source\PSoC4/cyfitter_cfg.c **** #define CY_CFG_BASE_ADDR_COUNT 9u
 149:Generated_Source\PSoC4/cyfitter_cfg.c **** CYPACKED typedef struct
ARM GAS  C:\Users\ANDRES~1\AppData\Local\Temp\cc2ZpS1M.s 			page 6


 150:Generated_Source\PSoC4/cyfitter_cfg.c **** {
 151:Generated_Source\PSoC4/cyfitter_cfg.c **** 	uint8 offset;
 152:Generated_Source\PSoC4/cyfitter_cfg.c **** 	uint8 value;
 153:Generated_Source\PSoC4/cyfitter_cfg.c **** } CYPACKED_ATTR cy_cfg_addrvalue_t;
 154:Generated_Source\PSoC4/cyfitter_cfg.c **** 
 155:Generated_Source\PSoC4/cyfitter_cfg.c **** 
 156:Generated_Source\PSoC4/cyfitter_cfg.c **** 
 157:Generated_Source\PSoC4/cyfitter_cfg.c **** /*******************************************************************************
 158:Generated_Source\PSoC4/cyfitter_cfg.c **** * Function Name: cfg_write_bytes32
 159:Generated_Source\PSoC4/cyfitter_cfg.c **** ********************************************************************************
 160:Generated_Source\PSoC4/cyfitter_cfg.c **** * Summary:
 161:Generated_Source\PSoC4/cyfitter_cfg.c **** *  This function is used for setting up the chip configuration areas that
 162:Generated_Source\PSoC4/cyfitter_cfg.c **** *  contain relatively sparse data.
 163:Generated_Source\PSoC4/cyfitter_cfg.c **** *
 164:Generated_Source\PSoC4/cyfitter_cfg.c **** * Parameters:
 165:Generated_Source\PSoC4/cyfitter_cfg.c **** *   void
 166:Generated_Source\PSoC4/cyfitter_cfg.c **** *
 167:Generated_Source\PSoC4/cyfitter_cfg.c **** * Return:
 168:Generated_Source\PSoC4/cyfitter_cfg.c **** *   void
 169:Generated_Source\PSoC4/cyfitter_cfg.c **** *
 170:Generated_Source\PSoC4/cyfitter_cfg.c **** *******************************************************************************/
 171:Generated_Source\PSoC4/cyfitter_cfg.c **** static void cfg_write_bytes32(const uint32 addr_table[], const cy_cfg_addrvalue_t data_table[]);
 172:Generated_Source\PSoC4/cyfitter_cfg.c **** static void cfg_write_bytes32(const uint32 addr_table[], const cy_cfg_addrvalue_t data_table[])
 173:Generated_Source\PSoC4/cyfitter_cfg.c **** {
 137              		.loc 1 173 0
 138              		.cfi_startproc
 139              		@ args = 0, pretend = 0, frame = 24
 140              		@ frame_needed = 1, uses_anonymous_args = 0
 141 0000 80B5     		push	{r7, lr}
 142              		.cfi_def_cfa_offset 8
 143              		.cfi_offset 7, -8
 144              		.cfi_offset 14, -4
 145 0002 86B0     		sub	sp, sp, #24
 146              		.cfi_def_cfa_offset 32
 147 0004 00AF     		add	r7, sp, #0
 148              		.cfi_def_cfa_register 7
 149 0006 7860     		str	r0, [r7, #4]
 150 0008 3960     		str	r1, [r7]
 174:Generated_Source\PSoC4/cyfitter_cfg.c **** 	/* For 32-bit little-endian architectures */
 175:Generated_Source\PSoC4/cyfitter_cfg.c **** 	uint32 i, j = 0u;
 151              		.loc 1 175 0
 152 000a 0023     		movs	r3, #0
 153 000c 3B61     		str	r3, [r7, #16]
 176:Generated_Source\PSoC4/cyfitter_cfg.c **** 	for (i = 0u; i < CY_CFG_BASE_ADDR_COUNT; i++)
 154              		.loc 1 176 0
 155 000e 0023     		movs	r3, #0
 156 0010 7B61     		str	r3, [r7, #20]
 157 0012 2FE0     		b	.L5
 158              	.L8:
 159              	.LBB2:
 177:Generated_Source\PSoC4/cyfitter_cfg.c **** 	{
 178:Generated_Source\PSoC4/cyfitter_cfg.c **** 		uint32 baseAddr = addr_table[i];
 160              		.loc 1 178 0
 161 0014 7B69     		ldr	r3, [r7, #20]
 162 0016 9B00     		lsls	r3, r3, #2
 163 0018 7A68     		ldr	r2, [r7, #4]
 164 001a D318     		adds	r3, r2, r3
ARM GAS  C:\Users\ANDRES~1\AppData\Local\Temp\cc2ZpS1M.s 			page 7


 165 001c 1B68     		ldr	r3, [r3]
 166 001e BB60     		str	r3, [r7, #8]
 179:Generated_Source\PSoC4/cyfitter_cfg.c **** 		uint8 count = (uint8)baseAddr;
 167              		.loc 1 179 0
 168 0020 0F23     		movs	r3, #15
 169 0022 FB18     		adds	r3, r7, r3
 170 0024 BA68     		ldr	r2, [r7, #8]
 171 0026 1A70     		strb	r2, [r3]
 180:Generated_Source\PSoC4/cyfitter_cfg.c **** 		baseAddr &= 0xFFFFFF00u;
 172              		.loc 1 180 0
 173 0028 BB68     		ldr	r3, [r7, #8]
 174 002a FF22     		movs	r2, #255
 175 002c 9343     		bics	r3, r2
 176 002e BB60     		str	r3, [r7, #8]
 181:Generated_Source\PSoC4/cyfitter_cfg.c **** 		while (count != 0u)
 177              		.loc 1 181 0
 178 0030 18E0     		b	.L6
 179              	.L7:
 182:Generated_Source\PSoC4/cyfitter_cfg.c **** 		{
 183:Generated_Source\PSoC4/cyfitter_cfg.c **** 			CY_SET_REG8((void *)(baseAddr + data_table[j].offset), data_table[j].value);
 180              		.loc 1 183 0
 181 0032 3B69     		ldr	r3, [r7, #16]
 182 0034 5B00     		lsls	r3, r3, #1
 183 0036 3A68     		ldr	r2, [r7]
 184 0038 D318     		adds	r3, r2, r3
 185 003a 1B78     		ldrb	r3, [r3]
 186 003c 1A00     		movs	r2, r3
 187 003e BB68     		ldr	r3, [r7, #8]
 188 0040 D318     		adds	r3, r2, r3
 189 0042 1900     		movs	r1, r3
 190 0044 3B69     		ldr	r3, [r7, #16]
 191 0046 5B00     		lsls	r3, r3, #1
 192 0048 3A68     		ldr	r2, [r7]
 193 004a D318     		adds	r3, r2, r3
 194 004c 5B78     		ldrb	r3, [r3, #1]
 195 004e 0B70     		strb	r3, [r1]
 184:Generated_Source\PSoC4/cyfitter_cfg.c **** 			j++;
 196              		.loc 1 184 0
 197 0050 3B69     		ldr	r3, [r7, #16]
 198 0052 0133     		adds	r3, r3, #1
 199 0054 3B61     		str	r3, [r7, #16]
 185:Generated_Source\PSoC4/cyfitter_cfg.c **** 			count--;
 200              		.loc 1 185 0
 201 0056 0F23     		movs	r3, #15
 202 0058 FB18     		adds	r3, r7, r3
 203 005a 1A78     		ldrb	r2, [r3]
 204 005c 0F23     		movs	r3, #15
 205 005e FB18     		adds	r3, r7, r3
 206 0060 013A     		subs	r2, r2, #1
 207 0062 1A70     		strb	r2, [r3]
 208              	.L6:
 181:Generated_Source\PSoC4/cyfitter_cfg.c **** 		{
 209              		.loc 1 181 0
 210 0064 0F23     		movs	r3, #15
 211 0066 FB18     		adds	r3, r7, r3
 212 0068 1B78     		ldrb	r3, [r3]
 213 006a 002B     		cmp	r3, #0
ARM GAS  C:\Users\ANDRES~1\AppData\Local\Temp\cc2ZpS1M.s 			page 8


 214 006c E1D1     		bne	.L7
 215              	.LBE2:
 176:Generated_Source\PSoC4/cyfitter_cfg.c **** 	{
 216              		.loc 1 176 0 discriminator 2
 217 006e 7B69     		ldr	r3, [r7, #20]
 218 0070 0133     		adds	r3, r3, #1
 219 0072 7B61     		str	r3, [r7, #20]
 220              	.L5:
 176:Generated_Source\PSoC4/cyfitter_cfg.c **** 	{
 221              		.loc 1 176 0 is_stmt 0 discriminator 1
 222 0074 7B69     		ldr	r3, [r7, #20]
 223 0076 082B     		cmp	r3, #8
 224 0078 CCD9     		bls	.L8
 186:Generated_Source\PSoC4/cyfitter_cfg.c **** 		}
 187:Generated_Source\PSoC4/cyfitter_cfg.c **** 	}
 188:Generated_Source\PSoC4/cyfitter_cfg.c **** }
 225              		.loc 1 188 0 is_stmt 1
 226 007a C046     		nop
 227 007c BD46     		mov	sp, r7
 228 007e 06B0     		add	sp, sp, #24
 229              		@ sp needed
 230 0080 80BD     		pop	{r7, pc}
 231              		.cfi_endproc
 232              	.LFE3:
 233              		.size	cfg_write_bytes32, .-cfg_write_bytes32
 234 0082 C046     		.section	.psocinit,"ax",%progbits
 235              		.align	2
 236              		.code	16
 237              		.thumb_func
 238              		.type	ClockSetup, %function
 239              	ClockSetup:
 240              	.LFB4:
 189:Generated_Source\PSoC4/cyfitter_cfg.c **** 
 190:Generated_Source\PSoC4/cyfitter_cfg.c **** 
 191:Generated_Source\PSoC4/cyfitter_cfg.c **** /*******************************************************************************
 192:Generated_Source\PSoC4/cyfitter_cfg.c **** * Function Name: ClockSetup
 193:Generated_Source\PSoC4/cyfitter_cfg.c **** ********************************************************************************
 194:Generated_Source\PSoC4/cyfitter_cfg.c **** *
 195:Generated_Source\PSoC4/cyfitter_cfg.c **** * Summary:
 196:Generated_Source\PSoC4/cyfitter_cfg.c **** *   Performs the initialization of all of the clocks in the device based on the
 197:Generated_Source\PSoC4/cyfitter_cfg.c **** *   settings in the Clock tab of the DWR.  This includes enabling the requested
 198:Generated_Source\PSoC4/cyfitter_cfg.c **** *   clocks and setting the necessary dividers to produce the desired frequency. 
 199:Generated_Source\PSoC4/cyfitter_cfg.c **** *
 200:Generated_Source\PSoC4/cyfitter_cfg.c **** * Parameters:
 201:Generated_Source\PSoC4/cyfitter_cfg.c **** *   void
 202:Generated_Source\PSoC4/cyfitter_cfg.c **** *
 203:Generated_Source\PSoC4/cyfitter_cfg.c **** * Return:
 204:Generated_Source\PSoC4/cyfitter_cfg.c **** *   void
 205:Generated_Source\PSoC4/cyfitter_cfg.c **** *
 206:Generated_Source\PSoC4/cyfitter_cfg.c **** *******************************************************************************/
 207:Generated_Source\PSoC4/cyfitter_cfg.c **** static void ClockSetup(void);
 208:Generated_Source\PSoC4/cyfitter_cfg.c **** CY_CFG_SECTION
 209:Generated_Source\PSoC4/cyfitter_cfg.c **** static void ClockSetup(void)
 210:Generated_Source\PSoC4/cyfitter_cfg.c **** {
 241              		.loc 1 210 0
 242              		.cfi_startproc
 243              		@ args = 0, pretend = 0, frame = 0
ARM GAS  C:\Users\ANDRES~1\AppData\Local\Temp\cc2ZpS1M.s 			page 9


 244              		@ frame_needed = 1, uses_anonymous_args = 0
 245 0000 80B5     		push	{r7, lr}
 246              		.cfi_def_cfa_offset 8
 247              		.cfi_offset 7, -8
 248              		.cfi_offset 14, -4
 249 0002 00AF     		add	r7, sp, #0
 250              		.cfi_def_cfa_register 7
 211:Generated_Source\PSoC4/cyfitter_cfg.c **** 	/* Enable HALF_EN before trimming for the flash accelerator. */
 212:Generated_Source\PSoC4/cyfitter_cfg.c **** 	CY_SET_REG32((void CYXDATA *)(CYREG_CLK_SELECT), (CY_GET_REG32((void *)CYREG_CLK_SELECT) | 0x00040
 251              		.loc 1 212 0
 252 0004 1D4B     		ldr	r3, .L10
 253 0006 1D4A     		ldr	r2, .L10
 254 0008 1268     		ldr	r2, [r2]
 255 000a 8021     		movs	r1, #128
 256 000c C902     		lsls	r1, r1, #11
 257 000e 0A43     		orrs	r2, r1
 258 0010 1A60     		str	r2, [r3]
 213:Generated_Source\PSoC4/cyfitter_cfg.c **** 
 214:Generated_Source\PSoC4/cyfitter_cfg.c **** 	/* Setup and trim IMO based on desired frequency. */
 215:Generated_Source\PSoC4/cyfitter_cfg.c **** 	CySysClkWriteImoFreq(48u);
 259              		.loc 1 215 0
 260 0012 3020     		movs	r0, #48
 261 0014 FFF7FEFF 		bl	CySysClkWriteImoFreq
 216:Generated_Source\PSoC4/cyfitter_cfg.c **** 	/* CYDEV_CLK_ILO_CONFIG Starting address: CYDEV_CLK_ILO_CONFIG */
 217:Generated_Source\PSoC4/cyfitter_cfg.c **** 	CY_SET_REG32((void *)(CYREG_CLK_ILO_CONFIG), 0x80000006u);
 262              		.loc 1 217 0
 263 0018 194B     		ldr	r3, .L10+4
 264 001a 1A4A     		ldr	r2, .L10+8
 265 001c 1A60     		str	r2, [r3]
 218:Generated_Source\PSoC4/cyfitter_cfg.c **** 
 219:Generated_Source\PSoC4/cyfitter_cfg.c **** 
 220:Generated_Source\PSoC4/cyfitter_cfg.c **** 	/* CYDEV_CLK_SELECT00 Starting address: CYDEV_CLK_SELECT00 */
 221:Generated_Source\PSoC4/cyfitter_cfg.c **** 	CY_SET_REG32((void *)(CYREG_CLK_SELECT02), 0x00000030u);
 266              		.loc 1 221 0
 267 001e 1A4B     		ldr	r3, .L10+12
 268 0020 3022     		movs	r2, #48
 269 0022 1A60     		str	r2, [r3]
 222:Generated_Source\PSoC4/cyfitter_cfg.c **** 	CY_SET_REG32((void *)(CYREG_CLK_SELECT03), 0x00000011u);
 270              		.loc 1 222 0
 271 0024 194B     		ldr	r3, .L10+16
 272 0026 1122     		movs	r2, #17
 273 0028 1A60     		str	r2, [r3]
 223:Generated_Source\PSoC4/cyfitter_cfg.c **** 	CY_SET_REG32((void *)(CYREG_CLK_SELECT07), 0x00000010u);
 274              		.loc 1 223 0
 275 002a 194B     		ldr	r3, .L10+20
 276 002c 1022     		movs	r2, #16
 277 002e 1A60     		str	r2, [r3]
 224:Generated_Source\PSoC4/cyfitter_cfg.c **** 	CY_SET_REG32((void *)(CYREG_CLK_SELECT08), 0x00000020u);
 278              		.loc 1 224 0
 279 0030 184B     		ldr	r3, .L10+24
 280 0032 2022     		movs	r2, #32
 281 0034 1A60     		str	r2, [r3]
 225:Generated_Source\PSoC4/cyfitter_cfg.c **** 	CY_SET_REG32((void *)(CYREG_CLK_SELECT09), 0x00000021u);
 282              		.loc 1 225 0
 283 0036 184B     		ldr	r3, .L10+28
 284 0038 2122     		movs	r2, #33
 285 003a 1A60     		str	r2, [r3]
ARM GAS  C:\Users\ANDRES~1\AppData\Local\Temp\cc2ZpS1M.s 			page 10


 226:Generated_Source\PSoC4/cyfitter_cfg.c **** 	CY_SET_REG32((void *)(CYREG_CLK_SELECT12), 0x00000021u);
 286              		.loc 1 226 0
 287 003c 174B     		ldr	r3, .L10+32
 288 003e 2122     		movs	r2, #33
 289 0040 1A60     		str	r2, [r3]
 227:Generated_Source\PSoC4/cyfitter_cfg.c **** 
 228:Generated_Source\PSoC4/cyfitter_cfg.c **** 	/* CYDEV_CLK_IMO_CONFIG Starting address: CYDEV_CLK_IMO_CONFIG */
 229:Generated_Source\PSoC4/cyfitter_cfg.c **** 	CY_SET_REG32((void *)(CYREG_CLK_IMO_CONFIG), 0x82000000u);
 290              		.loc 1 229 0
 291 0042 174B     		ldr	r3, .L10+36
 292 0044 8222     		movs	r2, #130
 293 0046 1206     		lsls	r2, r2, #24
 294 0048 1A60     		str	r2, [r3]
 230:Generated_Source\PSoC4/cyfitter_cfg.c **** 
 231:Generated_Source\PSoC4/cyfitter_cfg.c **** 	/* CYDEV_CLK_SELECT Starting address: CYDEV_CLK_SELECT */
 232:Generated_Source\PSoC4/cyfitter_cfg.c **** 	CY_SET_REG32((void *)(CYREG_CLK_SELECT), 0x00040000u);
 295              		.loc 1 232 0
 296 004a 0C4B     		ldr	r3, .L10
 297 004c 8022     		movs	r2, #128
 298 004e D202     		lsls	r2, r2, #11
 299 0050 1A60     		str	r2, [r3]
 233:Generated_Source\PSoC4/cyfitter_cfg.c **** 
 234:Generated_Source\PSoC4/cyfitter_cfg.c **** 	/* CYDEV_CLK_DIVIDER_A00 Starting address: CYDEV_CLK_DIVIDER_A00 */
 235:Generated_Source\PSoC4/cyfitter_cfg.c **** 	CY_SET_REG32((void *)(CYREG_CLK_DIVIDER_A00), 0x80000002u);
 300              		.loc 1 235 0
 301 0052 144B     		ldr	r3, .L10+40
 302 0054 144A     		ldr	r2, .L10+44
 303 0056 1A60     		str	r2, [r3]
 236:Generated_Source\PSoC4/cyfitter_cfg.c **** 
 237:Generated_Source\PSoC4/cyfitter_cfg.c **** 	/* CYDEV_CLK_DIVIDER_B00 Starting address: CYDEV_CLK_DIVIDER_B00 */
 238:Generated_Source\PSoC4/cyfitter_cfg.c **** 	CY_SET_REG32((void *)(CYREG_CLK_DIVIDER_B00), 0x80000009u);
 304              		.loc 1 238 0
 305 0058 144B     		ldr	r3, .L10+48
 306 005a 154A     		ldr	r2, .L10+52
 307 005c 1A60     		str	r2, [r3]
 239:Generated_Source\PSoC4/cyfitter_cfg.c **** 
 240:Generated_Source\PSoC4/cyfitter_cfg.c **** 	/* CYDEV_CLK_DIVIDER_C00 Starting address: CYDEV_CLK_DIVIDER_C00 */
 241:Generated_Source\PSoC4/cyfitter_cfg.c **** 	CY_SET_REG32((void *)(CYREG_CLK_DIVIDER_C00), 0x80000022u);
 308              		.loc 1 241 0
 309 005e 154B     		ldr	r3, .L10+56
 310 0060 154A     		ldr	r2, .L10+60
 311 0062 1A60     		str	r2, [r3]
 242:Generated_Source\PSoC4/cyfitter_cfg.c **** 
 243:Generated_Source\PSoC4/cyfitter_cfg.c **** 	/* CYDEV_CLK_DIVIDER_A01 Starting address: CYDEV_CLK_DIVIDER_A01 */
 244:Generated_Source\PSoC4/cyfitter_cfg.c **** 	CY_SET_REG32((void *)(CYREG_CLK_DIVIDER_A01), 0x80000033u);
 312              		.loc 1 244 0
 313 0064 154B     		ldr	r3, .L10+64
 314 0066 164A     		ldr	r2, .L10+68
 315 0068 1A60     		str	r2, [r3]
 245:Generated_Source\PSoC4/cyfitter_cfg.c **** 
 246:Generated_Source\PSoC4/cyfitter_cfg.c **** 	/* CYDEV_CLK_DIVIDER_B01 Starting address: CYDEV_CLK_DIVIDER_B01 */
 247:Generated_Source\PSoC4/cyfitter_cfg.c **** 	CY_SET_REG32((void *)(CYREG_CLK_DIVIDER_B01), 0x800000EFu);
 316              		.loc 1 247 0
 317 006a 164B     		ldr	r3, .L10+72
 318 006c 164A     		ldr	r2, .L10+76
 319 006e 1A60     		str	r2, [r3]
 248:Generated_Source\PSoC4/cyfitter_cfg.c **** 
ARM GAS  C:\Users\ANDRES~1\AppData\Local\Temp\cc2ZpS1M.s 			page 11


 249:Generated_Source\PSoC4/cyfitter_cfg.c **** 	CY_SET_REG32((void *)(CYREG_WDT_CONFIG), 0x00000000u);
 320              		.loc 1 249 0
 321 0070 164B     		ldr	r3, .L10+80
 322 0072 0022     		movs	r2, #0
 323 0074 1A60     		str	r2, [r3]
 250:Generated_Source\PSoC4/cyfitter_cfg.c **** }
 324              		.loc 1 250 0
 325 0076 C046     		nop
 326 0078 BD46     		mov	sp, r7
 327              		@ sp needed
 328 007a 80BD     		pop	{r7, pc}
 329              	.L11:
 330              		.align	2
 331              	.L10:
 332 007c 00010B40 		.word	1074462976
 333 0080 04010B40 		.word	1074462980
 334 0084 06000080 		.word	-2147483642
 335 0088 08020240 		.word	1073873416
 336 008c 0C020240 		.word	1073873420
 337 0090 1C020240 		.word	1073873436
 338 0094 20020240 		.word	1073873440
 339 0098 24020240 		.word	1073873444
 340 009c 30020240 		.word	1073873456
 341 00a0 08010B40 		.word	1074462984
 342 00a4 00000240 		.word	1073872896
 343 00a8 02000080 		.word	-2147483646
 344 00ac 40000240 		.word	1073872960
 345 00b0 09000080 		.word	-2147483639
 346 00b4 80000240 		.word	1073873024
 347 00b8 22000080 		.word	-2147483614
 348 00bc 04000240 		.word	1073872900
 349 00c0 33000080 		.word	-2147483597
 350 00c4 44000240 		.word	1073872964
 351 00c8 EF000080 		.word	-2147483409
 352 00cc 0C020B40 		.word	1074463244
 353              		.cfi_endproc
 354              	.LFE4:
 355              		.size	ClockSetup, .-ClockSetup
 356              		.section	.text.AnalogSetDefault,"ax",%progbits
 357              		.align	2
 358              		.code	16
 359              		.thumb_func
 360              		.type	AnalogSetDefault, %function
 361              	AnalogSetDefault:
 362              	.LFB5:
 251:Generated_Source\PSoC4/cyfitter_cfg.c **** 
 252:Generated_Source\PSoC4/cyfitter_cfg.c **** 
 253:Generated_Source\PSoC4/cyfitter_cfg.c **** /* Analog API Functions */
 254:Generated_Source\PSoC4/cyfitter_cfg.c **** 
 255:Generated_Source\PSoC4/cyfitter_cfg.c **** 
 256:Generated_Source\PSoC4/cyfitter_cfg.c **** /*******************************************************************************
 257:Generated_Source\PSoC4/cyfitter_cfg.c **** * Function Name: AnalogSetDefault
 258:Generated_Source\PSoC4/cyfitter_cfg.c **** ********************************************************************************
 259:Generated_Source\PSoC4/cyfitter_cfg.c **** *
 260:Generated_Source\PSoC4/cyfitter_cfg.c **** * Summary:
 261:Generated_Source\PSoC4/cyfitter_cfg.c **** *  Sets up the analog portions of the chip to default values based on chip
 262:Generated_Source\PSoC4/cyfitter_cfg.c **** *  configuration options from the project.
ARM GAS  C:\Users\ANDRES~1\AppData\Local\Temp\cc2ZpS1M.s 			page 12


 263:Generated_Source\PSoC4/cyfitter_cfg.c **** *
 264:Generated_Source\PSoC4/cyfitter_cfg.c **** * Parameters:
 265:Generated_Source\PSoC4/cyfitter_cfg.c **** *  void
 266:Generated_Source\PSoC4/cyfitter_cfg.c **** *
 267:Generated_Source\PSoC4/cyfitter_cfg.c **** * Return:
 268:Generated_Source\PSoC4/cyfitter_cfg.c **** *  void
 269:Generated_Source\PSoC4/cyfitter_cfg.c **** *
 270:Generated_Source\PSoC4/cyfitter_cfg.c **** *******************************************************************************/
 271:Generated_Source\PSoC4/cyfitter_cfg.c **** static void AnalogSetDefault(void);
 272:Generated_Source\PSoC4/cyfitter_cfg.c **** static void AnalogSetDefault(void)
 273:Generated_Source\PSoC4/cyfitter_cfg.c **** {
 363              		.loc 1 273 0
 364              		.cfi_startproc
 365              		@ args = 0, pretend = 0, frame = 0
 366              		@ frame_needed = 1, uses_anonymous_args = 0
 367 0000 80B5     		push	{r7, lr}
 368              		.cfi_def_cfa_offset 8
 369              		.cfi_offset 7, -8
 370              		.cfi_offset 14, -4
 371 0002 00AF     		add	r7, sp, #0
 372              		.cfi_def_cfa_register 7
 274:Generated_Source\PSoC4/cyfitter_cfg.c **** 	CY_SET_XTND_REG32((void CYFAR *)CYREG_SAR_MUX_SWITCH0, 0x00000042u);
 373              		.loc 1 274 0
 374 0004 054B     		ldr	r3, .L13
 375 0006 4222     		movs	r2, #66
 376 0008 1A60     		str	r2, [r3]
 275:Generated_Source\PSoC4/cyfitter_cfg.c **** 	CY_SET_XTND_REG32((void CYFAR *)CYREG_SAR_MUX_SWITCH_HW_CTRL, 0x00000042u);
 377              		.loc 1 275 0
 378 000a 054B     		ldr	r3, .L13+4
 379 000c 4222     		movs	r2, #66
 380 000e 1A60     		str	r2, [r3]
 276:Generated_Source\PSoC4/cyfitter_cfg.c **** 	SetAnalogRoutingPumps(1);
 381              		.loc 1 276 0
 382 0010 0120     		movs	r0, #1
 383 0012 FFF7FEFF 		bl	SetAnalogRoutingPumps
 277:Generated_Source\PSoC4/cyfitter_cfg.c **** }
 384              		.loc 1 277 0
 385 0016 C046     		nop
 386 0018 BD46     		mov	sp, r7
 387              		@ sp needed
 388 001a 80BD     		pop	{r7, pc}
 389              	.L14:
 390              		.align	2
 391              	.L13:
 392 001c 00031A40 		.word	1075446528
 393 0020 40031A40 		.word	1075446592
 394              		.cfi_endproc
 395              	.LFE5:
 396              		.size	AnalogSetDefault, .-AnalogSetDefault
 397              		.section	.text.SetAnalogRoutingPumps,"ax",%progbits
 398              		.align	2
 399              		.global	SetAnalogRoutingPumps
 400              		.code	16
 401              		.thumb_func
 402              		.type	SetAnalogRoutingPumps, %function
 403              	SetAnalogRoutingPumps:
 404              	.LFB6:
ARM GAS  C:\Users\ANDRES~1\AppData\Local\Temp\cc2ZpS1M.s 			page 13


 278:Generated_Source\PSoC4/cyfitter_cfg.c **** 
 279:Generated_Source\PSoC4/cyfitter_cfg.c **** 
 280:Generated_Source\PSoC4/cyfitter_cfg.c **** /*******************************************************************************
 281:Generated_Source\PSoC4/cyfitter_cfg.c **** * Function Name: SetAnalogRoutingPumps
 282:Generated_Source\PSoC4/cyfitter_cfg.c **** ********************************************************************************
 283:Generated_Source\PSoC4/cyfitter_cfg.c **** *
 284:Generated_Source\PSoC4/cyfitter_cfg.c **** * Summary:
 285:Generated_Source\PSoC4/cyfitter_cfg.c **** * Enables or disables the analog pumps feeding analog routing switches.
 286:Generated_Source\PSoC4/cyfitter_cfg.c **** * Intended to be called at startup, based on the Vdda system configuration;
 287:Generated_Source\PSoC4/cyfitter_cfg.c **** * may be called during operation when the user informs us that the Vdda voltage crossed the pump th
 288:Generated_Source\PSoC4/cyfitter_cfg.c **** *
 289:Generated_Source\PSoC4/cyfitter_cfg.c **** * Parameters:
 290:Generated_Source\PSoC4/cyfitter_cfg.c **** *  enabled - 1 to enable the pumps, 0 to disable the pumps
 291:Generated_Source\PSoC4/cyfitter_cfg.c **** *
 292:Generated_Source\PSoC4/cyfitter_cfg.c **** * Return:
 293:Generated_Source\PSoC4/cyfitter_cfg.c **** *  void
 294:Generated_Source\PSoC4/cyfitter_cfg.c **** *
 295:Generated_Source\PSoC4/cyfitter_cfg.c **** *******************************************************************************/
 296:Generated_Source\PSoC4/cyfitter_cfg.c **** void SetAnalogRoutingPumps(uint8 enabled)
 297:Generated_Source\PSoC4/cyfitter_cfg.c **** {
 405              		.loc 1 297 0
 406              		.cfi_startproc
 407              		@ args = 0, pretend = 0, frame = 16
 408              		@ frame_needed = 1, uses_anonymous_args = 0
 409 0000 80B5     		push	{r7, lr}
 410              		.cfi_def_cfa_offset 8
 411              		.cfi_offset 7, -8
 412              		.cfi_offset 14, -4
 413 0002 84B0     		sub	sp, sp, #16
 414              		.cfi_def_cfa_offset 24
 415 0004 00AF     		add	r7, sp, #0
 416              		.cfi_def_cfa_register 7
 417 0006 0200     		movs	r2, r0
 418 0008 FB1D     		adds	r3, r7, #7
 419 000a 1A70     		strb	r2, [r3]
 298:Generated_Source\PSoC4/cyfitter_cfg.c **** 	uint32 regValue = CY_GET_XTND_REG32((void *)(CYREG_SAR_PUMP_CTRL));
 420              		.loc 1 298 0
 421 000c 0B4B     		ldr	r3, .L18
 422 000e 1B68     		ldr	r3, [r3]
 423 0010 FB60     		str	r3, [r7, #12]
 299:Generated_Source\PSoC4/cyfitter_cfg.c **** 	if (enabled != 0u)
 424              		.loc 1 299 0
 425 0012 FB1D     		adds	r3, r7, #7
 426 0014 1B78     		ldrb	r3, [r3]
 427 0016 002B     		cmp	r3, #0
 428 0018 05D0     		beq	.L16
 300:Generated_Source\PSoC4/cyfitter_cfg.c **** 	{
 301:Generated_Source\PSoC4/cyfitter_cfg.c **** 		regValue |= 0x80000000u;
 429              		.loc 1 301 0
 430 001a FB68     		ldr	r3, [r7, #12]
 431 001c 8022     		movs	r2, #128
 432 001e 1206     		lsls	r2, r2, #24
 433 0020 1343     		orrs	r3, r2
 434 0022 FB60     		str	r3, [r7, #12]
 435 0024 03E0     		b	.L17
 436              	.L16:
 302:Generated_Source\PSoC4/cyfitter_cfg.c **** 	}
ARM GAS  C:\Users\ANDRES~1\AppData\Local\Temp\cc2ZpS1M.s 			page 14


 303:Generated_Source\PSoC4/cyfitter_cfg.c **** 	else
 304:Generated_Source\PSoC4/cyfitter_cfg.c **** 	{
 305:Generated_Source\PSoC4/cyfitter_cfg.c **** 		regValue &= ~0x80000000u;
 437              		.loc 1 305 0
 438 0026 FB68     		ldr	r3, [r7, #12]
 439 0028 5B00     		lsls	r3, r3, #1
 440 002a 5B08     		lsrs	r3, r3, #1
 441 002c FB60     		str	r3, [r7, #12]
 442              	.L17:
 306:Generated_Source\PSoC4/cyfitter_cfg.c **** 	}
 307:Generated_Source\PSoC4/cyfitter_cfg.c **** 	CY_SET_XTND_REG32((void *)(CYREG_SAR_PUMP_CTRL), regValue);
 443              		.loc 1 307 0
 444 002e 034B     		ldr	r3, .L18
 445 0030 FA68     		ldr	r2, [r7, #12]
 446 0032 1A60     		str	r2, [r3]
 308:Generated_Source\PSoC4/cyfitter_cfg.c **** }
 447              		.loc 1 308 0
 448 0034 C046     		nop
 449 0036 BD46     		mov	sp, r7
 450 0038 04B0     		add	sp, sp, #16
 451              		@ sp needed
 452 003a 80BD     		pop	{r7, pc}
 453              	.L19:
 454              		.align	2
 455              	.L18:
 456 003c 80031A40 		.word	1075446656
 457              		.cfi_endproc
 458              	.LFE6:
 459              		.size	SetAnalogRoutingPumps, .-SetAnalogRoutingPumps
 460              		.section	.psocinit
 461              		.align	2
 462              		.global	cyfitter_cfg
 463              		.code	16
 464              		.thumb_func
 465              		.type	cyfitter_cfg, %function
 466              	cyfitter_cfg:
 467              	.LFB7:
 309:Generated_Source\PSoC4/cyfitter_cfg.c **** 
 310:Generated_Source\PSoC4/cyfitter_cfg.c **** 
 311:Generated_Source\PSoC4/cyfitter_cfg.c **** 
 312:Generated_Source\PSoC4/cyfitter_cfg.c **** 
 313:Generated_Source\PSoC4/cyfitter_cfg.c **** /*******************************************************************************
 314:Generated_Source\PSoC4/cyfitter_cfg.c **** * Function Name: cyfitter_cfg
 315:Generated_Source\PSoC4/cyfitter_cfg.c **** ********************************************************************************
 316:Generated_Source\PSoC4/cyfitter_cfg.c **** * Summary:
 317:Generated_Source\PSoC4/cyfitter_cfg.c **** *  This function is called by the start-up code for the selected device. It
 318:Generated_Source\PSoC4/cyfitter_cfg.c **** *  performs all of the necessary device configuration based on the design
 319:Generated_Source\PSoC4/cyfitter_cfg.c **** *  settings.  This includes settings from the Design Wide Resources (DWR) such
 320:Generated_Source\PSoC4/cyfitter_cfg.c **** *  as Clocks and Pins as well as any component configuration that is necessary.
 321:Generated_Source\PSoC4/cyfitter_cfg.c **** *
 322:Generated_Source\PSoC4/cyfitter_cfg.c **** * Parameters:
 323:Generated_Source\PSoC4/cyfitter_cfg.c **** *   void
 324:Generated_Source\PSoC4/cyfitter_cfg.c **** *
 325:Generated_Source\PSoC4/cyfitter_cfg.c **** * Return:
 326:Generated_Source\PSoC4/cyfitter_cfg.c **** *   void
 327:Generated_Source\PSoC4/cyfitter_cfg.c **** *
 328:Generated_Source\PSoC4/cyfitter_cfg.c **** *******************************************************************************/
ARM GAS  C:\Users\ANDRES~1\AppData\Local\Temp\cc2ZpS1M.s 			page 15


 329:Generated_Source\PSoC4/cyfitter_cfg.c **** CY_CFG_SECTION
 330:Generated_Source\PSoC4/cyfitter_cfg.c **** void cyfitter_cfg(void)
 331:Generated_Source\PSoC4/cyfitter_cfg.c **** {
 468              		.loc 1 331 0
 469              		.cfi_startproc
 470              		@ args = 0, pretend = 0, frame = 8
 471              		@ frame_needed = 1, uses_anonymous_args = 0
 472 00d0 80B5     		push	{r7, lr}
 473              		.cfi_def_cfa_offset 8
 474              		.cfi_offset 7, -8
 475              		.cfi_offset 14, -4
 476 00d2 82B0     		sub	sp, sp, #8
 477              		.cfi_def_cfa_offset 16
 478 00d4 00AF     		add	r7, sp, #0
 479              		.cfi_def_cfa_register 7
 332:Generated_Source\PSoC4/cyfitter_cfg.c **** 	/* Disable interrupts by default. Let user enable if/when they want. */
 333:Generated_Source\PSoC4/cyfitter_cfg.c **** 	CyGlobalIntDisable;
 480              		.loc 1 333 0
 481              		.syntax divided
 482              	@ 333 "Generated_Source\PSoC4\cyfitter_cfg.c" 1
 483 00d6 72B6     		CPSID   i
 484              	@ 0 "" 2
 334:Generated_Source\PSoC4/cyfitter_cfg.c **** 
 335:Generated_Source\PSoC4/cyfitter_cfg.c **** 	/* Enable the clock in the interrupt controller for the routed interrupts */
 336:Generated_Source\PSoC4/cyfitter_cfg.c **** 	CY_SET_REG8((void *)CYREG_UDB_UDBIF_INT_CLK_CTL, 0x01u);
 485              		.loc 1 336 0
 486              		.thumb
 487              		.syntax unified
 488 00d8 5C4B     		ldr	r3, .L23
 489 00da 0122     		movs	r2, #1
 490 00dc 1A70     		strb	r2, [r3]
 491              	.LBB3:
 337:Generated_Source\PSoC4/cyfitter_cfg.c **** 	{
 338:Generated_Source\PSoC4/cyfitter_cfg.c **** 		static const uint32 CYCODE cy_cfg_addr_table[] = {
 339:Generated_Source\PSoC4/cyfitter_cfg.c **** 			0x400F3004u, /* Base address: 0x400F3000 Count: 4 */
 340:Generated_Source\PSoC4/cyfitter_cfg.c **** 			0x400F3107u, /* Base address: 0x400F3100 Count: 7 */
 341:Generated_Source\PSoC4/cyfitter_cfg.c **** 			0x400F323Au, /* Base address: 0x400F3200 Count: 58 */
 342:Generated_Source\PSoC4/cyfitter_cfg.c **** 			0x400F3339u, /* Base address: 0x400F3300 Count: 57 */
 343:Generated_Source\PSoC4/cyfitter_cfg.c **** 			0x400F4008u, /* Base address: 0x400F4000 Count: 8 */
 344:Generated_Source\PSoC4/cyfitter_cfg.c **** 			0x400F4111u, /* Base address: 0x400F4100 Count: 17 */
 345:Generated_Source\PSoC4/cyfitter_cfg.c **** 			0x400F4212u, /* Base address: 0x400F4200 Count: 18 */
 346:Generated_Source\PSoC4/cyfitter_cfg.c **** 			0x400F431Bu, /* Base address: 0x400F4300 Count: 27 */
 347:Generated_Source\PSoC4/cyfitter_cfg.c **** 			0x400F6002u, /* Base address: 0x400F6000 Count: 2 */
 348:Generated_Source\PSoC4/cyfitter_cfg.c **** 		};
 349:Generated_Source\PSoC4/cyfitter_cfg.c **** 
 350:Generated_Source\PSoC4/cyfitter_cfg.c **** 		static const cy_cfg_addrvalue_t CYCODE cy_cfg_data_table[] = {
 351:Generated_Source\PSoC4/cyfitter_cfg.c **** 			{0x38u, 0x20u},
 352:Generated_Source\PSoC4/cyfitter_cfg.c **** 			{0x3Eu, 0x10u},
 353:Generated_Source\PSoC4/cyfitter_cfg.c **** 			{0x58u, 0x04u},
 354:Generated_Source\PSoC4/cyfitter_cfg.c **** 			{0x5Fu, 0x01u},
 355:Generated_Source\PSoC4/cyfitter_cfg.c **** 			{0x1Bu, 0x20u},
 356:Generated_Source\PSoC4/cyfitter_cfg.c **** 			{0x82u, 0x40u},
 357:Generated_Source\PSoC4/cyfitter_cfg.c **** 			{0x83u, 0x08u},
 358:Generated_Source\PSoC4/cyfitter_cfg.c **** 			{0x87u, 0x10u},
 359:Generated_Source\PSoC4/cyfitter_cfg.c **** 			{0x8Fu, 0x01u},
 360:Generated_Source\PSoC4/cyfitter_cfg.c **** 			{0xE2u, 0x0Cu},
 361:Generated_Source\PSoC4/cyfitter_cfg.c **** 			{0xE6u, 0x01u},
ARM GAS  C:\Users\ANDRES~1\AppData\Local\Temp\cc2ZpS1M.s 			page 16


 362:Generated_Source\PSoC4/cyfitter_cfg.c **** 			{0x02u, 0x0Cu},
 363:Generated_Source\PSoC4/cyfitter_cfg.c **** 			{0x0Bu, 0x01u},
 364:Generated_Source\PSoC4/cyfitter_cfg.c **** 			{0x0Du, 0x04u},
 365:Generated_Source\PSoC4/cyfitter_cfg.c **** 			{0x0Eu, 0x0Cu},
 366:Generated_Source\PSoC4/cyfitter_cfg.c **** 			{0x0Fu, 0x02u},
 367:Generated_Source\PSoC4/cyfitter_cfg.c **** 			{0x10u, 0x05u},
 368:Generated_Source\PSoC4/cyfitter_cfg.c **** 			{0x12u, 0x0Au},
 369:Generated_Source\PSoC4/cyfitter_cfg.c **** 			{0x14u, 0x09u},
 370:Generated_Source\PSoC4/cyfitter_cfg.c **** 			{0x16u, 0x06u},
 371:Generated_Source\PSoC4/cyfitter_cfg.c **** 			{0x20u, 0x08u},
 372:Generated_Source\PSoC4/cyfitter_cfg.c **** 			{0x22u, 0x04u},
 373:Generated_Source\PSoC4/cyfitter_cfg.c **** 			{0x28u, 0x01u},
 374:Generated_Source\PSoC4/cyfitter_cfg.c **** 			{0x29u, 0x05u},
 375:Generated_Source\PSoC4/cyfitter_cfg.c **** 			{0x2Au, 0x02u},
 376:Generated_Source\PSoC4/cyfitter_cfg.c **** 			{0x2Bu, 0x02u},
 377:Generated_Source\PSoC4/cyfitter_cfg.c **** 			{0x2Du, 0x02u},
 378:Generated_Source\PSoC4/cyfitter_cfg.c **** 			{0x2Fu, 0x05u},
 379:Generated_Source\PSoC4/cyfitter_cfg.c **** 			{0x30u, 0x03u},
 380:Generated_Source\PSoC4/cyfitter_cfg.c **** 			{0x32u, 0x0Cu},
 381:Generated_Source\PSoC4/cyfitter_cfg.c **** 			{0x33u, 0x06u},
 382:Generated_Source\PSoC4/cyfitter_cfg.c **** 			{0x37u, 0x01u},
 383:Generated_Source\PSoC4/cyfitter_cfg.c **** 			{0x3Au, 0x30u},
 384:Generated_Source\PSoC4/cyfitter_cfg.c **** 			{0x3Eu, 0x05u},
 385:Generated_Source\PSoC4/cyfitter_cfg.c **** 			{0x3Fu, 0x44u},
 386:Generated_Source\PSoC4/cyfitter_cfg.c **** 			{0x58u, 0x04u},
 387:Generated_Source\PSoC4/cyfitter_cfg.c **** 			{0x59u, 0x04u},
 388:Generated_Source\PSoC4/cyfitter_cfg.c **** 			{0x5Bu, 0x04u},
 389:Generated_Source\PSoC4/cyfitter_cfg.c **** 			{0x5Fu, 0x01u},
 390:Generated_Source\PSoC4/cyfitter_cfg.c **** 			{0x88u, 0x06u},
 391:Generated_Source\PSoC4/cyfitter_cfg.c **** 			{0x89u, 0x0Au},
 392:Generated_Source\PSoC4/cyfitter_cfg.c **** 			{0x8Au, 0x09u},
 393:Generated_Source\PSoC4/cyfitter_cfg.c **** 			{0x8Bu, 0x05u},
 394:Generated_Source\PSoC4/cyfitter_cfg.c **** 			{0x8Cu, 0x09u},
 395:Generated_Source\PSoC4/cyfitter_cfg.c **** 			{0x8Eu, 0x06u},
 396:Generated_Source\PSoC4/cyfitter_cfg.c **** 			{0x90u, 0x01u},
 397:Generated_Source\PSoC4/cyfitter_cfg.c **** 			{0x92u, 0x02u},
 398:Generated_Source\PSoC4/cyfitter_cfg.c **** 			{0x95u, 0x01u},
 399:Generated_Source\PSoC4/cyfitter_cfg.c **** 			{0x97u, 0x02u},
 400:Generated_Source\PSoC4/cyfitter_cfg.c **** 			{0x9Au, 0x03u},
 401:Generated_Source\PSoC4/cyfitter_cfg.c **** 			{0x9Fu, 0x03u},
 402:Generated_Source\PSoC4/cyfitter_cfg.c **** 			{0xA1u, 0x04u},
 403:Generated_Source\PSoC4/cyfitter_cfg.c **** 			{0xA2u, 0x03u},
 404:Generated_Source\PSoC4/cyfitter_cfg.c **** 			{0xA3u, 0x08u},
 405:Generated_Source\PSoC4/cyfitter_cfg.c **** 			{0xA7u, 0x03u},
 406:Generated_Source\PSoC4/cyfitter_cfg.c **** 			{0xA8u, 0x08u},
 407:Generated_Source\PSoC4/cyfitter_cfg.c **** 			{0xAAu, 0x04u},
 408:Generated_Source\PSoC4/cyfitter_cfg.c **** 			{0xADu, 0x05u},
 409:Generated_Source\PSoC4/cyfitter_cfg.c **** 			{0xAFu, 0x0Au},
 410:Generated_Source\PSoC4/cyfitter_cfg.c **** 			{0xB0u, 0x0Cu},
 411:Generated_Source\PSoC4/cyfitter_cfg.c **** 			{0xB3u, 0x0Cu},
 412:Generated_Source\PSoC4/cyfitter_cfg.c **** 			{0xB4u, 0x03u},
 413:Generated_Source\PSoC4/cyfitter_cfg.c **** 			{0xB7u, 0x03u},
 414:Generated_Source\PSoC4/cyfitter_cfg.c **** 			{0xBEu, 0x11u},
 415:Generated_Source\PSoC4/cyfitter_cfg.c **** 			{0xBFu, 0x44u},
 416:Generated_Source\PSoC4/cyfitter_cfg.c **** 			{0xD8u, 0x04u},
 417:Generated_Source\PSoC4/cyfitter_cfg.c **** 			{0xD9u, 0x04u},
 418:Generated_Source\PSoC4/cyfitter_cfg.c **** 			{0xDBu, 0x04u},
ARM GAS  C:\Users\ANDRES~1\AppData\Local\Temp\cc2ZpS1M.s 			page 17


 419:Generated_Source\PSoC4/cyfitter_cfg.c **** 			{0xDFu, 0x01u},
 420:Generated_Source\PSoC4/cyfitter_cfg.c **** 			{0x03u, 0x0Au},
 421:Generated_Source\PSoC4/cyfitter_cfg.c **** 			{0x04u, 0x02u},
 422:Generated_Source\PSoC4/cyfitter_cfg.c **** 			{0x07u, 0x02u},
 423:Generated_Source\PSoC4/cyfitter_cfg.c **** 			{0x08u, 0x20u},
 424:Generated_Source\PSoC4/cyfitter_cfg.c **** 			{0x0Au, 0x40u},
 425:Generated_Source\PSoC4/cyfitter_cfg.c **** 			{0x0Eu, 0x40u},
 426:Generated_Source\PSoC4/cyfitter_cfg.c **** 			{0x0Fu, 0x90u},
 427:Generated_Source\PSoC4/cyfitter_cfg.c **** 			{0x13u, 0x12u},
 428:Generated_Source\PSoC4/cyfitter_cfg.c **** 			{0x14u, 0x04u},
 429:Generated_Source\PSoC4/cyfitter_cfg.c **** 			{0x17u, 0x01u},
 430:Generated_Source\PSoC4/cyfitter_cfg.c **** 			{0x18u, 0x08u},
 431:Generated_Source\PSoC4/cyfitter_cfg.c **** 			{0x19u, 0x01u},
 432:Generated_Source\PSoC4/cyfitter_cfg.c **** 			{0x1Eu, 0xA4u},
 433:Generated_Source\PSoC4/cyfitter_cfg.c **** 			{0x22u, 0x08u},
 434:Generated_Source\PSoC4/cyfitter_cfg.c **** 			{0x23u, 0x01u},
 435:Generated_Source\PSoC4/cyfitter_cfg.c **** 			{0x26u, 0x80u},
 436:Generated_Source\PSoC4/cyfitter_cfg.c **** 			{0x27u, 0x20u},
 437:Generated_Source\PSoC4/cyfitter_cfg.c **** 			{0x28u, 0x20u},
 438:Generated_Source\PSoC4/cyfitter_cfg.c **** 			{0x2Bu, 0x42u},
 439:Generated_Source\PSoC4/cyfitter_cfg.c **** 			{0x2Cu, 0x04u},
 440:Generated_Source\PSoC4/cyfitter_cfg.c **** 			{0x2Eu, 0x40u},
 441:Generated_Source\PSoC4/cyfitter_cfg.c **** 			{0x2Fu, 0x08u},
 442:Generated_Source\PSoC4/cyfitter_cfg.c **** 			{0x32u, 0x40u},
 443:Generated_Source\PSoC4/cyfitter_cfg.c **** 			{0x33u, 0x08u},
 444:Generated_Source\PSoC4/cyfitter_cfg.c **** 			{0x3Bu, 0x10u},
 445:Generated_Source\PSoC4/cyfitter_cfg.c **** 			{0x3Du, 0x80u},
 446:Generated_Source\PSoC4/cyfitter_cfg.c **** 			{0x3Fu, 0x10u},
 447:Generated_Source\PSoC4/cyfitter_cfg.c **** 			{0x5Eu, 0x80u},
 448:Generated_Source\PSoC4/cyfitter_cfg.c **** 			{0x68u, 0x04u},
 449:Generated_Source\PSoC4/cyfitter_cfg.c **** 			{0x6Au, 0x80u},
 450:Generated_Source\PSoC4/cyfitter_cfg.c **** 			{0x6Bu, 0x02u},
 451:Generated_Source\PSoC4/cyfitter_cfg.c **** 			{0x6Du, 0x80u},
 452:Generated_Source\PSoC4/cyfitter_cfg.c **** 			{0x6Fu, 0x03u},
 453:Generated_Source\PSoC4/cyfitter_cfg.c **** 			{0x80u, 0x25u},
 454:Generated_Source\PSoC4/cyfitter_cfg.c **** 			{0x83u, 0x20u},
 455:Generated_Source\PSoC4/cyfitter_cfg.c **** 			{0x84u, 0x04u},
 456:Generated_Source\PSoC4/cyfitter_cfg.c **** 			{0x86u, 0x14u},
 457:Generated_Source\PSoC4/cyfitter_cfg.c **** 			{0x8Au, 0x88u},
 458:Generated_Source\PSoC4/cyfitter_cfg.c **** 			{0x8Du, 0x01u},
 459:Generated_Source\PSoC4/cyfitter_cfg.c **** 			{0x92u, 0x40u},
 460:Generated_Source\PSoC4/cyfitter_cfg.c **** 			{0x93u, 0x10u},
 461:Generated_Source\PSoC4/cyfitter_cfg.c **** 			{0x97u, 0x01u},
 462:Generated_Source\PSoC4/cyfitter_cfg.c **** 			{0xA3u, 0x08u},
 463:Generated_Source\PSoC4/cyfitter_cfg.c **** 			{0xB7u, 0x20u},
 464:Generated_Source\PSoC4/cyfitter_cfg.c **** 			{0xC0u, 0x93u},
 465:Generated_Source\PSoC4/cyfitter_cfg.c **** 			{0xC2u, 0x3Au},
 466:Generated_Source\PSoC4/cyfitter_cfg.c **** 			{0xC4u, 0x5Au},
 467:Generated_Source\PSoC4/cyfitter_cfg.c **** 			{0xCAu, 0x3Bu},
 468:Generated_Source\PSoC4/cyfitter_cfg.c **** 			{0xCCu, 0x0Au},
 469:Generated_Source\PSoC4/cyfitter_cfg.c **** 			{0xCEu, 0x34u},
 470:Generated_Source\PSoC4/cyfitter_cfg.c **** 			{0xD6u, 0x10u},
 471:Generated_Source\PSoC4/cyfitter_cfg.c **** 			{0xE0u, 0x02u},
 472:Generated_Source\PSoC4/cyfitter_cfg.c **** 			{0xE2u, 0x90u},
 473:Generated_Source\PSoC4/cyfitter_cfg.c **** 			{0xE4u, 0x0Bu},
 474:Generated_Source\PSoC4/cyfitter_cfg.c **** 			{0xE6u, 0x04u},
 475:Generated_Source\PSoC4/cyfitter_cfg.c **** 			{0xE8u, 0x04u},
ARM GAS  C:\Users\ANDRES~1\AppData\Local\Temp\cc2ZpS1M.s 			page 18


 476:Generated_Source\PSoC4/cyfitter_cfg.c **** 			{0xEAu, 0x40u},
 477:Generated_Source\PSoC4/cyfitter_cfg.c **** 			{0x32u, 0x20u},
 478:Generated_Source\PSoC4/cyfitter_cfg.c **** 			{0x57u, 0x80u},
 479:Generated_Source\PSoC4/cyfitter_cfg.c **** 			{0x5Bu, 0x04u},
 480:Generated_Source\PSoC4/cyfitter_cfg.c **** 			{0x6Cu, 0x04u},
 481:Generated_Source\PSoC4/cyfitter_cfg.c **** 			{0xCCu, 0x10u},
 482:Generated_Source\PSoC4/cyfitter_cfg.c **** 			{0xD4u, 0x40u},
 483:Generated_Source\PSoC4/cyfitter_cfg.c **** 			{0xD6u, 0x40u},
 484:Generated_Source\PSoC4/cyfitter_cfg.c **** 			{0xDAu, 0x80u},
 485:Generated_Source\PSoC4/cyfitter_cfg.c **** 			{0x1Bu, 0x02u},
 486:Generated_Source\PSoC4/cyfitter_cfg.c **** 			{0x48u, 0x01u},
 487:Generated_Source\PSoC4/cyfitter_cfg.c **** 			{0x83u, 0x04u},
 488:Generated_Source\PSoC4/cyfitter_cfg.c **** 			{0x86u, 0x20u},
 489:Generated_Source\PSoC4/cyfitter_cfg.c **** 			{0x88u, 0x01u},
 490:Generated_Source\PSoC4/cyfitter_cfg.c **** 			{0x8Cu, 0x04u},
 491:Generated_Source\PSoC4/cyfitter_cfg.c **** 			{0x94u, 0x08u},
 492:Generated_Source\PSoC4/cyfitter_cfg.c **** 			{0x9Fu, 0x04u},
 493:Generated_Source\PSoC4/cyfitter_cfg.c **** 			{0xA6u, 0x20u},
 494:Generated_Source\PSoC4/cyfitter_cfg.c **** 			{0xA7u, 0x02u},
 495:Generated_Source\PSoC4/cyfitter_cfg.c **** 			{0xABu, 0x02u},
 496:Generated_Source\PSoC4/cyfitter_cfg.c **** 			{0xB7u, 0x80u},
 497:Generated_Source\PSoC4/cyfitter_cfg.c **** 			{0xC6u, 0x10u},
 498:Generated_Source\PSoC4/cyfitter_cfg.c **** 			{0xD2u, 0x10u},
 499:Generated_Source\PSoC4/cyfitter_cfg.c **** 			{0xE2u, 0x80u},
 500:Generated_Source\PSoC4/cyfitter_cfg.c **** 			{0xE6u, 0x40u},
 501:Generated_Source\PSoC4/cyfitter_cfg.c **** 			{0xE8u, 0x20u},
 502:Generated_Source\PSoC4/cyfitter_cfg.c **** 			{0x02u, 0x01u},
 503:Generated_Source\PSoC4/cyfitter_cfg.c **** 			{0x05u, 0x80u},
 504:Generated_Source\PSoC4/cyfitter_cfg.c **** 			{0x09u, 0x01u},
 505:Generated_Source\PSoC4/cyfitter_cfg.c **** 			{0x36u, 0x20u},
 506:Generated_Source\PSoC4/cyfitter_cfg.c **** 			{0x62u, 0x02u},
 507:Generated_Source\PSoC4/cyfitter_cfg.c **** 			{0x6Au, 0x40u},
 508:Generated_Source\PSoC4/cyfitter_cfg.c **** 			{0x6Fu, 0x80u},
 509:Generated_Source\PSoC4/cyfitter_cfg.c **** 			{0x81u, 0x01u},
 510:Generated_Source\PSoC4/cyfitter_cfg.c **** 			{0x82u, 0x01u},
 511:Generated_Source\PSoC4/cyfitter_cfg.c **** 			{0x85u, 0x80u},
 512:Generated_Source\PSoC4/cyfitter_cfg.c **** 			{0x8Eu, 0x02u},
 513:Generated_Source\PSoC4/cyfitter_cfg.c **** 			{0xC0u, 0x03u},
 514:Generated_Source\PSoC4/cyfitter_cfg.c **** 			{0xC2u, 0x08u},
 515:Generated_Source\PSoC4/cyfitter_cfg.c **** 			{0xCCu, 0x04u},
 516:Generated_Source\PSoC4/cyfitter_cfg.c **** 			{0xD8u, 0x02u},
 517:Generated_Source\PSoC4/cyfitter_cfg.c **** 			{0xDAu, 0x02u},
 518:Generated_Source\PSoC4/cyfitter_cfg.c **** 			{0xDCu, 0x02u},
 519:Generated_Source\PSoC4/cyfitter_cfg.c **** 			{0xE4u, 0x08u},
 520:Generated_Source\PSoC4/cyfitter_cfg.c **** 			{0x18u, 0x40u},
 521:Generated_Source\PSoC4/cyfitter_cfg.c **** 			{0x28u, 0x80u},
 522:Generated_Source\PSoC4/cyfitter_cfg.c **** 			{0x36u, 0x20u},
 523:Generated_Source\PSoC4/cyfitter_cfg.c **** 			{0x5Eu, 0x01u},
 524:Generated_Source\PSoC4/cyfitter_cfg.c **** 			{0x60u, 0x10u},
 525:Generated_Source\PSoC4/cyfitter_cfg.c **** 			{0x63u, 0x02u},
 526:Generated_Source\PSoC4/cyfitter_cfg.c **** 			{0x66u, 0x01u},
 527:Generated_Source\PSoC4/cyfitter_cfg.c **** 			{0x78u, 0x01u},
 528:Generated_Source\PSoC4/cyfitter_cfg.c **** 			{0x80u, 0x50u},
 529:Generated_Source\PSoC4/cyfitter_cfg.c **** 			{0x84u, 0x01u},
 530:Generated_Source\PSoC4/cyfitter_cfg.c **** 			{0x86u, 0x20u},
 531:Generated_Source\PSoC4/cyfitter_cfg.c **** 			{0x87u, 0x01u},
 532:Generated_Source\PSoC4/cyfitter_cfg.c **** 			{0x8Au, 0x01u},
ARM GAS  C:\Users\ANDRES~1\AppData\Local\Temp\cc2ZpS1M.s 			page 19


 533:Generated_Source\PSoC4/cyfitter_cfg.c **** 			{0x8Cu, 0x80u},
 534:Generated_Source\PSoC4/cyfitter_cfg.c **** 			{0x8Eu, 0x01u},
 535:Generated_Source\PSoC4/cyfitter_cfg.c **** 			{0xA6u, 0x20u},
 536:Generated_Source\PSoC4/cyfitter_cfg.c **** 			{0xAAu, 0x40u},
 537:Generated_Source\PSoC4/cyfitter_cfg.c **** 			{0xB7u, 0x80u},
 538:Generated_Source\PSoC4/cyfitter_cfg.c **** 			{0xC6u, 0x08u},
 539:Generated_Source\PSoC4/cyfitter_cfg.c **** 			{0xCAu, 0x02u},
 540:Generated_Source\PSoC4/cyfitter_cfg.c **** 			{0xCCu, 0x04u},
 541:Generated_Source\PSoC4/cyfitter_cfg.c **** 			{0xD6u, 0x03u},
 542:Generated_Source\PSoC4/cyfitter_cfg.c **** 			{0xD8u, 0x03u},
 543:Generated_Source\PSoC4/cyfitter_cfg.c **** 			{0xDEu, 0x02u},
 544:Generated_Source\PSoC4/cyfitter_cfg.c **** 			{0xE2u, 0x08u},
 545:Generated_Source\PSoC4/cyfitter_cfg.c **** 			{0xE4u, 0x03u},
 546:Generated_Source\PSoC4/cyfitter_cfg.c **** 			{0xE8u, 0x02u},
 547:Generated_Source\PSoC4/cyfitter_cfg.c **** 			{0x10u, 0x01u},
 548:Generated_Source\PSoC4/cyfitter_cfg.c **** 			{0x11u, 0x01u},
 549:Generated_Source\PSoC4/cyfitter_cfg.c **** 		};
 550:Generated_Source\PSoC4/cyfitter_cfg.c **** 
 551:Generated_Source\PSoC4/cyfitter_cfg.c **** 
 552:Generated_Source\PSoC4/cyfitter_cfg.c **** 
 553:Generated_Source\PSoC4/cyfitter_cfg.c **** 		CYPACKED typedef struct {
 554:Generated_Source\PSoC4/cyfitter_cfg.c **** 			void CYFAR *address;
 555:Generated_Source\PSoC4/cyfitter_cfg.c **** 			uint16 size;
 556:Generated_Source\PSoC4/cyfitter_cfg.c **** 		} CYPACKED_ATTR cfg_memset_t;
 557:Generated_Source\PSoC4/cyfitter_cfg.c **** 
 558:Generated_Source\PSoC4/cyfitter_cfg.c **** 		static const cfg_memset_t CYCODE cfg_memset_list[] = {
 559:Generated_Source\PSoC4/cyfitter_cfg.c **** 			/* address, size */
 560:Generated_Source\PSoC4/cyfitter_cfg.c **** 			{(void CYFAR *)(CYDEV_UDB_P0_U0_BASE), 1024u},
 561:Generated_Source\PSoC4/cyfitter_cfg.c **** 			{(void CYFAR *)(CYDEV_UDB_DSI0_BASE), 1024u},
 562:Generated_Source\PSoC4/cyfitter_cfg.c **** 		};
 563:Generated_Source\PSoC4/cyfitter_cfg.c **** 
 564:Generated_Source\PSoC4/cyfitter_cfg.c **** 		uint8 CYDATA i;
 565:Generated_Source\PSoC4/cyfitter_cfg.c **** 
 566:Generated_Source\PSoC4/cyfitter_cfg.c **** 		/* Zero out critical memory blocks before beginning configuration */
 567:Generated_Source\PSoC4/cyfitter_cfg.c **** 		for (i = 0u; i < (sizeof(cfg_memset_list)/sizeof(cfg_memset_list[0])); i++)
 492              		.loc 1 567 0
 493 00de FB1D     		adds	r3, r7, #7
 494 00e0 0022     		movs	r2, #0
 495 00e2 1A70     		strb	r2, [r3]
 496 00e4 22E0     		b	.L21
 497              	.L22:
 498              	.LBB4:
 568:Generated_Source\PSoC4/cyfitter_cfg.c **** 		{
 569:Generated_Source\PSoC4/cyfitter_cfg.c **** 			const cfg_memset_t CYCODE * CYDATA ms = &cfg_memset_list[i];
 499              		.loc 1 569 0 discriminator 3
 500 00e6 FB1D     		adds	r3, r7, #7
 501 00e8 1A78     		ldrb	r2, [r3]
 502 00ea 1300     		movs	r3, r2
 503 00ec 5B00     		lsls	r3, r3, #1
 504 00ee 9B18     		adds	r3, r3, r2
 505 00f0 5B00     		lsls	r3, r3, #1
 506 00f2 574A     		ldr	r2, .L23+4
 507 00f4 9B18     		adds	r3, r3, r2
 508 00f6 3B60     		str	r3, [r7]
 570:Generated_Source\PSoC4/cyfitter_cfg.c **** 			CYMEMZERO(ms->address, (size_t)(uint32)(ms->size));
 509              		.loc 1 570 0 discriminator 3
 510 00f8 3B68     		ldr	r3, [r7]
ARM GAS  C:\Users\ANDRES~1\AppData\Local\Temp\cc2ZpS1M.s 			page 20


 511 00fa 1A78     		ldrb	r2, [r3]
 512 00fc 5978     		ldrb	r1, [r3, #1]
 513 00fe 0902     		lsls	r1, r1, #8
 514 0100 0A43     		orrs	r2, r1
 515 0102 9978     		ldrb	r1, [r3, #2]
 516 0104 0904     		lsls	r1, r1, #16
 517 0106 0A43     		orrs	r2, r1
 518 0108 DB78     		ldrb	r3, [r3, #3]
 519 010a 1B06     		lsls	r3, r3, #24
 520 010c 1343     		orrs	r3, r2
 521 010e 1800     		movs	r0, r3
 522 0110 3B68     		ldr	r3, [r7]
 523 0112 1A79     		ldrb	r2, [r3, #4]
 524 0114 5B79     		ldrb	r3, [r3, #5]
 525 0116 1B02     		lsls	r3, r3, #8
 526 0118 1343     		orrs	r3, r2
 527 011a 9BB2     		uxth	r3, r3
 528 011c 1900     		movs	r1, r3
 529 011e FFF7FEFF 		bl	CYMEMZERO
 530              	.LBE4:
 567:Generated_Source\PSoC4/cyfitter_cfg.c **** 		{
 531              		.loc 1 567 0 discriminator 3
 532 0122 FB1D     		adds	r3, r7, #7
 533 0124 1A78     		ldrb	r2, [r3]
 534 0126 FB1D     		adds	r3, r7, #7
 535 0128 0132     		adds	r2, r2, #1
 536 012a 1A70     		strb	r2, [r3]
 537              	.L21:
 567:Generated_Source\PSoC4/cyfitter_cfg.c **** 		{
 538              		.loc 1 567 0 is_stmt 0 discriminator 1
 539 012c FB1D     		adds	r3, r7, #7
 540 012e 1B78     		ldrb	r3, [r3]
 541 0130 012B     		cmp	r3, #1
 542 0132 D8D9     		bls	.L22
 571:Generated_Source\PSoC4/cyfitter_cfg.c **** 		}
 572:Generated_Source\PSoC4/cyfitter_cfg.c **** 
 573:Generated_Source\PSoC4/cyfitter_cfg.c **** 		cfg_write_bytes32(cy_cfg_addr_table, cy_cfg_data_table);
 543              		.loc 1 573 0 is_stmt 1
 544 0134 474A     		ldr	r2, .L23+8
 545 0136 484B     		ldr	r3, .L23+12
 546 0138 1100     		movs	r1, r2
 547 013a 1800     		movs	r0, r3
 548 013c FFF7FEFF 		bl	cfg_write_bytes32
 574:Generated_Source\PSoC4/cyfitter_cfg.c **** 
 575:Generated_Source\PSoC4/cyfitter_cfg.c **** 		/* Perform normal device configuration. Order is not critical for these items. */
 576:Generated_Source\PSoC4/cyfitter_cfg.c **** 		CY_SET_REG16((void *)(CYREG_UDB_BCTL0_DRV), 0x0100u);
 549              		.loc 1 576 0
 550 0140 464B     		ldr	r3, .L23+16
 551 0142 8022     		movs	r2, #128
 552 0144 5200     		lsls	r2, r2, #1
 553 0146 1A80     		strh	r2, [r3]
 577:Generated_Source\PSoC4/cyfitter_cfg.c **** 		CY_SET_REG8((void *)(CYREG_UDB_BCTL0_DRV + 0x2u), 0x01u);
 554              		.loc 1 577 0
 555 0148 454B     		ldr	r3, .L23+20
 556 014a 0122     		movs	r2, #1
 557 014c 1A70     		strb	r2, [r3]
 578:Generated_Source\PSoC4/cyfitter_cfg.c **** 
ARM GAS  C:\Users\ANDRES~1\AppData\Local\Temp\cc2ZpS1M.s 			page 21


 579:Generated_Source\PSoC4/cyfitter_cfg.c **** 		/* HSIOM Starting address: CYDEV_HSIOM_BASE */
 580:Generated_Source\PSoC4/cyfitter_cfg.c **** 		CY_SET_REG32((void *)(CYDEV_HSIOM_BASE), 0x02000060u);
 558              		.loc 1 580 0
 559 014e 454B     		ldr	r3, .L23+24
 560 0150 454A     		ldr	r2, .L23+28
 561 0152 1A60     		str	r2, [r3]
 581:Generated_Source\PSoC4/cyfitter_cfg.c **** 		CY_SET_REG32((void *)(CYREG_HSIOM_PORT_SEL2), 0x20000000u);
 562              		.loc 1 581 0
 563 0154 454B     		ldr	r3, .L23+32
 564 0156 8022     		movs	r2, #128
 565 0158 9205     		lsls	r2, r2, #22
 566 015a 1A60     		str	r2, [r3]
 582:Generated_Source\PSoC4/cyfitter_cfg.c **** 		CY_SET_REG32((void *)(CYREG_HSIOM_PORT_SEL3), 0x2222EE99u);
 567              		.loc 1 582 0
 568 015c 444B     		ldr	r3, .L23+36
 569 015e 454A     		ldr	r2, .L23+40
 570 0160 1A60     		str	r2, [r3]
 583:Generated_Source\PSoC4/cyfitter_cfg.c **** 		CY_SET_REG32((void *)(CYREG_HSIOM_PORT_SEL4), 0x00000099u);
 571              		.loc 1 583 0
 572 0162 454B     		ldr	r3, .L23+44
 573 0164 9922     		movs	r2, #153
 574 0166 1A60     		str	r2, [r3]
 584:Generated_Source\PSoC4/cyfitter_cfg.c **** 
 585:Generated_Source\PSoC4/cyfitter_cfg.c **** 		/* UDB_PA_0 Starting address: CYDEV_UDB_PA0_BASE */
 586:Generated_Source\PSoC4/cyfitter_cfg.c **** 		CY_SET_REG32((void *)(CYDEV_UDB_PA0_BASE), 0x00990000u);
 575              		.loc 1 586 0
 576 0168 444B     		ldr	r3, .L23+48
 577 016a 9922     		movs	r2, #153
 578 016c 1204     		lsls	r2, r2, #16
 579 016e 1A60     		str	r2, [r3]
 587:Generated_Source\PSoC4/cyfitter_cfg.c **** 		CY_SET_REG32((void *)(CYREG_UDB_PA0_CFG4), 0x00800000u);
 580              		.loc 1 587 0
 581 0170 434B     		ldr	r3, .L23+52
 582 0172 8022     		movs	r2, #128
 583 0174 1204     		lsls	r2, r2, #16
 584 0176 1A60     		str	r2, [r3]
 588:Generated_Source\PSoC4/cyfitter_cfg.c **** 		CY_SET_REG32((void *)(CYREG_UDB_PA0_CFG8), 0x45040000u);
 585              		.loc 1 588 0
 586 0178 424B     		ldr	r3, .L23+56
 587 017a 434A     		ldr	r2, .L23+60
 588 017c 1A60     		str	r2, [r3]
 589:Generated_Source\PSoC4/cyfitter_cfg.c **** 
 590:Generated_Source\PSoC4/cyfitter_cfg.c **** 		/* UDB_PA_1 Starting address: CYDEV_UDB_PA1_BASE */
 591:Generated_Source\PSoC4/cyfitter_cfg.c **** 		CY_SET_REG32((void *)(CYDEV_UDB_PA1_BASE), 0x00990000u);
 589              		.loc 1 591 0
 590 017e 434B     		ldr	r3, .L23+64
 591 0180 9922     		movs	r2, #153
 592 0182 1204     		lsls	r2, r2, #16
 593 0184 1A60     		str	r2, [r3]
 592:Generated_Source\PSoC4/cyfitter_cfg.c **** 
 593:Generated_Source\PSoC4/cyfitter_cfg.c **** 		/* UDB_PA_2 Starting address: CYDEV_UDB_PA2_BASE */
 594:Generated_Source\PSoC4/cyfitter_cfg.c **** 		CY_SET_REG32((void *)(CYDEV_UDB_PA2_BASE), 0x00990000u);
 594              		.loc 1 594 0
 595 0186 424B     		ldr	r3, .L23+68
 596 0188 9922     		movs	r2, #153
 597 018a 1204     		lsls	r2, r2, #16
 598 018c 1A60     		str	r2, [r3]
ARM GAS  C:\Users\ANDRES~1\AppData\Local\Temp\cc2ZpS1M.s 			page 22


 595:Generated_Source\PSoC4/cyfitter_cfg.c **** 		CY_SET_REG32((void *)(CYREG_UDB_PA2_CFG8), 0x80000000u);
 599              		.loc 1 595 0
 600 018e 414B     		ldr	r3, .L23+72
 601 0190 8022     		movs	r2, #128
 602 0192 1206     		lsls	r2, r2, #24
 603 0194 1A60     		str	r2, [r3]
 596:Generated_Source\PSoC4/cyfitter_cfg.c **** 		CY_SET_REG32((void *)(CYREG_UDB_PA2_CFG12), 0x00004000u);
 604              		.loc 1 596 0
 605 0196 404B     		ldr	r3, .L23+76
 606 0198 8022     		movs	r2, #128
 607 019a D201     		lsls	r2, r2, #7
 608 019c 1A60     		str	r2, [r3]
 597:Generated_Source\PSoC4/cyfitter_cfg.c **** 
 598:Generated_Source\PSoC4/cyfitter_cfg.c **** 		/* UDB_PA_3 Starting address: CYDEV_UDB_PA3_BASE */
 599:Generated_Source\PSoC4/cyfitter_cfg.c **** 		CY_SET_REG32((void *)(CYDEV_UDB_PA3_BASE), 0x00990000u);
 609              		.loc 1 599 0
 610 019e 3F4B     		ldr	r3, .L23+80
 611 01a0 9922     		movs	r2, #153
 612 01a2 1204     		lsls	r2, r2, #16
 613 01a4 1A60     		str	r2, [r3]
 600:Generated_Source\PSoC4/cyfitter_cfg.c **** 		CY_SET_REG32((void *)(CYREG_UDB_PA3_CFG8), 0x36000000u);
 614              		.loc 1 600 0
 615 01a6 3E4B     		ldr	r3, .L23+84
 616 01a8 D822     		movs	r2, #216
 617 01aa 9205     		lsls	r2, r2, #22
 618 01ac 1A60     		str	r2, [r3]
 601:Generated_Source\PSoC4/cyfitter_cfg.c **** 		CY_SET_REG32((void *)(CYREG_UDB_PA3_CFG12), 0x00005500u);
 619              		.loc 1 601 0
 620 01ae 3D4B     		ldr	r3, .L23+88
 621 01b0 AA22     		movs	r2, #170
 622 01b2 D201     		lsls	r2, r2, #7
 623 01b4 1A60     		str	r2, [r3]
 602:Generated_Source\PSoC4/cyfitter_cfg.c **** 
 603:Generated_Source\PSoC4/cyfitter_cfg.c **** 		/* TCPWM_CNT1 Starting address: CYDEV_TCPWM_CNT1_TR_CTRL0 */
 604:Generated_Source\PSoC4/cyfitter_cfg.c **** 		CY_SET_REG32((void *)(CYREG_TCPWM_CNT1_TR_CTRL0), 0x0000008Eu);
 624              		.loc 1 604 0
 625 01b6 3C4B     		ldr	r3, .L23+92
 626 01b8 8E22     		movs	r2, #142
 627 01ba 1A60     		str	r2, [r3]
 605:Generated_Source\PSoC4/cyfitter_cfg.c **** 
 606:Generated_Source\PSoC4/cyfitter_cfg.c **** 		/* INT_SELECT Starting address: CYDEV_CPUSS_INTR_SELECT */
 607:Generated_Source\PSoC4/cyfitter_cfg.c **** 		CY_SET_REG32((void *)(CYREG_CPUSS_INTR_SELECT), 0x00000001u);
 628              		.loc 1 607 0
 629 01bc 3B4B     		ldr	r3, .L23+96
 630 01be 0122     		movs	r2, #1
 631 01c0 1A60     		str	r2, [r3]
 608:Generated_Source\PSoC4/cyfitter_cfg.c **** 
 609:Generated_Source\PSoC4/cyfitter_cfg.c **** 		/* INT_CONFIG Starting address: CYDEV_UDB_INT_CFG */
 610:Generated_Source\PSoC4/cyfitter_cfg.c **** 		CY_SET_REG32((void *)(CYREG_UDB_INT_CFG), 0x00000002u);
 632              		.loc 1 610 0
 633 01c2 3B4B     		ldr	r3, .L23+100
 634 01c4 0222     		movs	r2, #2
 635 01c6 1A60     		str	r2, [r3]
 611:Generated_Source\PSoC4/cyfitter_cfg.c **** 
 612:Generated_Source\PSoC4/cyfitter_cfg.c **** 		/* Enable UDB array and digital routing */
 613:Generated_Source\PSoC4/cyfitter_cfg.c **** 		CY_SET_XTND_REG8((void *)CYREG_UDB_UDBIF_WAIT_CFG, (uint8)((CY_GET_XTND_REG8((void *)CYREG_UDB_UD
 636              		.loc 1 613 0
ARM GAS  C:\Users\ANDRES~1\AppData\Local\Temp\cc2ZpS1M.s 			page 23


 637 01c8 3A4A     		ldr	r2, .L23+104
 638 01ca 3A4B     		ldr	r3, .L23+104
 639 01cc 1B78     		ldrb	r3, [r3]
 640 01ce DBB2     		uxtb	r3, r3
 641 01d0 3C21     		movs	r1, #60
 642 01d2 8B43     		bics	r3, r1
 643 01d4 DBB2     		uxtb	r3, r3
 644 01d6 1421     		movs	r1, #20
 645 01d8 0B43     		orrs	r3, r1
 646 01da DBB2     		uxtb	r3, r3
 647 01dc 1370     		strb	r3, [r2]
 614:Generated_Source\PSoC4/cyfitter_cfg.c **** 		CY_SET_XTND_REG8((void *)CYREG_UDB_UDBIF_BANK_CTL, (uint8)(CY_GET_XTND_REG8((void *)CYREG_UDB_UDB
 648              		.loc 1 614 0
 649 01de 364A     		ldr	r2, .L23+108
 650 01e0 354B     		ldr	r3, .L23+108
 651 01e2 1B78     		ldrb	r3, [r3]
 652 01e4 DBB2     		uxtb	r3, r3
 653 01e6 1621     		movs	r1, #22
 654 01e8 0B43     		orrs	r3, r1
 655 01ea DBB2     		uxtb	r3, r3
 656 01ec 1370     		strb	r3, [r2]
 657              	.LBE3:
 615:Generated_Source\PSoC4/cyfitter_cfg.c **** 	}
 616:Generated_Source\PSoC4/cyfitter_cfg.c **** 
 617:Generated_Source\PSoC4/cyfitter_cfg.c **** 	/* Perform second pass device configuration. These items must be configured in specific order afte
 618:Generated_Source\PSoC4/cyfitter_cfg.c **** 	/* IOPINS0_0 Starting address: CYDEV_PRT0_BASE */
 619:Generated_Source\PSoC4/cyfitter_cfg.c **** 	CY_SET_REG32((void *)(CYDEV_PRT0_BASE), 0x0000004Fu);
 658              		.loc 1 619 0
 659 01ee 334B     		ldr	r3, .L23+112
 660 01f0 4F22     		movs	r2, #79
 661 01f2 1A60     		str	r2, [r3]
 620:Generated_Source\PSoC4/cyfitter_cfg.c **** 	CY_SET_REG32((void *)(CYREG_PRT0_PC), 0x00180580u);
 662              		.loc 1 620 0
 663 01f4 324B     		ldr	r3, .L23+116
 664 01f6 334A     		ldr	r2, .L23+120
 665 01f8 1A60     		str	r2, [r3]
 621:Generated_Source\PSoC4/cyfitter_cfg.c **** 	CY_SET_REG32((void *)(CYREG_PRT0_PC2), 0x00000003u);
 666              		.loc 1 621 0
 667 01fa 334B     		ldr	r3, .L23+124
 668 01fc 0322     		movs	r2, #3
 669 01fe 1A60     		str	r2, [r3]
 622:Generated_Source\PSoC4/cyfitter_cfg.c **** 
 623:Generated_Source\PSoC4/cyfitter_cfg.c **** 	/* IOPINS0_1 Starting address: CYDEV_PRT1_BASE */
 624:Generated_Source\PSoC4/cyfitter_cfg.c **** 	CY_SET_REG32((void *)(CYREG_PRT1_PC2), 0x00000080u);
 670              		.loc 1 624 0
 671 0200 324B     		ldr	r3, .L23+128
 672 0202 8022     		movs	r2, #128
 673 0204 1A60     		str	r2, [r3]
 625:Generated_Source\PSoC4/cyfitter_cfg.c **** 
 626:Generated_Source\PSoC4/cyfitter_cfg.c **** 	/* IOPINS0_2 Starting address: CYDEV_PRT2_BASE */
 627:Generated_Source\PSoC4/cyfitter_cfg.c **** 	CY_SET_REG32((void *)(CYDEV_PRT2_BASE), 0x000000DEu);
 674              		.loc 1 627 0
 675 0206 324B     		ldr	r3, .L23+132
 676 0208 DE22     		movs	r2, #222
 677 020a 1A60     		str	r2, [r3]
 628:Generated_Source\PSoC4/cyfitter_cfg.c **** 	CY_SET_REG32((void *)(CYREG_PRT2_PC), 0x00C02480u);
 678              		.loc 1 628 0
ARM GAS  C:\Users\ANDRES~1\AppData\Local\Temp\cc2ZpS1M.s 			page 24


 679 020c 314B     		ldr	r3, .L23+136
 680 020e 324A     		ldr	r2, .L23+140
 681 0210 1A60     		str	r2, [r3]
 629:Generated_Source\PSoC4/cyfitter_cfg.c **** 	CY_SET_REG32((void *)(CYREG_PRT2_PC2), 0x00000042u);
 682              		.loc 1 629 0
 683 0212 324B     		ldr	r3, .L23+144
 684 0214 4222     		movs	r2, #66
 685 0216 1A60     		str	r2, [r3]
 630:Generated_Source\PSoC4/cyfitter_cfg.c **** 
 631:Generated_Source\PSoC4/cyfitter_cfg.c **** 	/* IOPINS0_3 Starting address: CYDEV_PRT3_BASE */
 632:Generated_Source\PSoC4/cyfitter_cfg.c **** 	CY_SET_REG32((void *)(CYDEV_PRT3_BASE), 0x000000F2u);
 686              		.loc 1 632 0
 687 0218 314B     		ldr	r3, .L23+148
 688 021a F222     		movs	r2, #242
 689 021c 1A60     		str	r2, [r3]
 633:Generated_Source\PSoC4/cyfitter_cfg.c **** 	CY_SET_REG32((void *)(CYREG_PRT3_PC), 0x00DB6DB1u);
 690              		.loc 1 633 0
 691 021e 314B     		ldr	r3, .L23+152
 692 0220 314A     		ldr	r2, .L23+156
 693 0222 1A60     		str	r2, [r3]
 634:Generated_Source\PSoC4/cyfitter_cfg.c **** 	CY_SET_REG32((void *)(CYREG_PRT3_PC2), 0x00000002u);
 694              		.loc 1 634 0
 695 0224 314B     		ldr	r3, .L23+160
 696 0226 0222     		movs	r2, #2
 697 0228 1A60     		str	r2, [r3]
 635:Generated_Source\PSoC4/cyfitter_cfg.c **** 
 636:Generated_Source\PSoC4/cyfitter_cfg.c **** 	/* IOPINS0_4 Starting address: CYDEV_PRT4_BASE */
 637:Generated_Source\PSoC4/cyfitter_cfg.c **** 	CY_SET_REG32((void *)(CYDEV_PRT4_BASE), 0x00000002u);
 698              		.loc 1 637 0
 699 022a 314B     		ldr	r3, .L23+164
 700 022c 0222     		movs	r2, #2
 701 022e 1A60     		str	r2, [r3]
 638:Generated_Source\PSoC4/cyfitter_cfg.c **** 	CY_SET_REG32((void *)(CYREG_PRT4_PC), 0x00000031u);
 702              		.loc 1 638 0
 703 0230 304B     		ldr	r3, .L23+168
 704 0232 3122     		movs	r2, #49
 705 0234 1A60     		str	r2, [r3]
 639:Generated_Source\PSoC4/cyfitter_cfg.c **** 	CY_SET_REG32((void *)(CYREG_PRT4_PC2), 0x00000002u);
 706              		.loc 1 639 0
 707 0236 304B     		ldr	r3, .L23+172
 708 0238 0222     		movs	r2, #2
 709 023a 1A60     		str	r2, [r3]
 640:Generated_Source\PSoC4/cyfitter_cfg.c **** 
 641:Generated_Source\PSoC4/cyfitter_cfg.c **** 
 642:Generated_Source\PSoC4/cyfitter_cfg.c **** 	/* Setup clocks based on selections from Clock DWR */
 643:Generated_Source\PSoC4/cyfitter_cfg.c **** 	ClockSetup();
 710              		.loc 1 643 0
 711 023c FFF7E0FE 		bl	ClockSetup
 644:Generated_Source\PSoC4/cyfitter_cfg.c **** 
 645:Generated_Source\PSoC4/cyfitter_cfg.c **** 	/* Perform basic analog initialization to defaults */
 646:Generated_Source\PSoC4/cyfitter_cfg.c **** 	AnalogSetDefault();
 712              		.loc 1 646 0
 713 0240 FFF7FEFF 		bl	AnalogSetDefault
 647:Generated_Source\PSoC4/cyfitter_cfg.c **** 
 648:Generated_Source\PSoC4/cyfitter_cfg.c **** }
 714              		.loc 1 648 0
 715 0244 C046     		nop
ARM GAS  C:\Users\ANDRES~1\AppData\Local\Temp\cc2ZpS1M.s 			page 25


 716 0246 BD46     		mov	sp, r7
 717 0248 02B0     		add	sp, sp, #8
 718              		@ sp needed
 719 024a 80BD     		pop	{r7, pc}
 720              	.L24:
 721              		.align	2
 722              	.L23:
 723 024c 1C700F40 		.word	1074753564
 724 0250 00000000 		.word	cfg_memset_list.4876
 725 0254 30000000 		.word	cy_cfg_data_table.4871
 726 0258 0C000000 		.word	cy_cfg_addr_table.4870
 727 025c 00600F40 		.word	1074749440
 728 0260 02600F40 		.word	1074749442
 729 0264 00000140 		.word	1073807360
 730 0268 60000002 		.word	33554528
 731 026c 08000140 		.word	1073807368
 732 0270 0C000140 		.word	1073807372
 733 0274 99EE2222 		.word	572714649
 734 0278 10000140 		.word	1073807376
 735 027c 00500F40 		.word	1074745344
 736 0280 04500F40 		.word	1074745348
 737 0284 08500F40 		.word	1074745352
 738 0288 00000445 		.word	1157890048
 739 028c 10500F40 		.word	1074745360
 740 0290 20500F40 		.word	1074745376
 741 0294 28500F40 		.word	1074745384
 742 0298 2C500F40 		.word	1074745388
 743 029c 30500F40 		.word	1074745392
 744 02a0 38500F40 		.word	1074745400
 745 02a4 3C500F40 		.word	1074745404
 746 02a8 60010540 		.word	1074069856
 747 02ac 20000040 		.word	1073741856
 748 02b0 00800F40 		.word	1074757632
 749 02b4 01700F40 		.word	1074753537
 750 02b8 00700F40 		.word	1074753536
 751 02bc 00000440 		.word	1074003968
 752 02c0 08000440 		.word	1074003976
 753 02c4 80051800 		.word	1574272
 754 02c8 18000440 		.word	1074003992
 755 02cc 18010440 		.word	1074004248
 756 02d0 00020440 		.word	1074004480
 757 02d4 08020440 		.word	1074004488
 758 02d8 8024C000 		.word	12592256
 759 02dc 18020440 		.word	1074004504
 760 02e0 00030440 		.word	1074004736
 761 02e4 08030440 		.word	1074004744
 762 02e8 B16DDB00 		.word	14380465
 763 02ec 18030440 		.word	1074004760
 764 02f0 00040440 		.word	1074004992
 765 02f4 08040440 		.word	1074005000
 766 02f8 18040440 		.word	1074005016
 767              		.cfi_endproc
 768              	.LFE7:
 769              		.size	cyfitter_cfg, .-cyfitter_cfg
 770              		.section	.rodata
 771              		.align	2
 772              		.type	cfg_memset_list.4876, %object
ARM GAS  C:\Users\ANDRES~1\AppData\Local\Temp\cc2ZpS1M.s 			page 26


 773              		.size	cfg_memset_list.4876, 12
 774              	cfg_memset_list.4876:
 775 0000 00300F40 		.word	1074737152
 776 0004 0004     		.short	1024
 777 0006 00400F40 		.4byte	1074741248
 778 000a 0004     		.short	1024
 779              		.align	2
 780              		.type	cy_cfg_addr_table.4870, %object
 781              		.size	cy_cfg_addr_table.4870, 36
 782              	cy_cfg_addr_table.4870:
 783 000c 04300F40 		.word	1074737156
 784 0010 07310F40 		.word	1074737415
 785 0014 3A320F40 		.word	1074737722
 786 0018 39330F40 		.word	1074737977
 787 001c 08400F40 		.word	1074741256
 788 0020 11410F40 		.word	1074741521
 789 0024 12420F40 		.word	1074741778
 790 0028 1B430F40 		.word	1074742043
 791 002c 02600F40 		.word	1074749442
 792              		.align	2
 793              		.type	cy_cfg_data_table.4871, %object
 794              		.size	cy_cfg_data_table.4871, 396
 795              	cy_cfg_data_table.4871:
 796 0030 38       		.byte	56
 797 0031 20       		.byte	32
 798 0032 3E       		.byte	62
 799 0033 10       		.byte	16
 800 0034 58       		.byte	88
 801 0035 04       		.byte	4
 802 0036 5F       		.byte	95
 803 0037 01       		.byte	1
 804 0038 1B       		.byte	27
 805 0039 20       		.byte	32
 806 003a 82       		.byte	-126
 807 003b 40       		.byte	64
 808 003c 83       		.byte	-125
 809 003d 08       		.byte	8
 810 003e 87       		.byte	-121
 811 003f 10       		.byte	16
 812 0040 8F       		.byte	-113
 813 0041 01       		.byte	1
 814 0042 E2       		.byte	-30
 815 0043 0C       		.byte	12
 816 0044 E6       		.byte	-26
 817 0045 01       		.byte	1
 818 0046 02       		.byte	2
 819 0047 0C       		.byte	12
 820 0048 0B       		.byte	11
 821 0049 01       		.byte	1
 822 004a 0D       		.byte	13
 823 004b 04       		.byte	4
 824 004c 0E       		.byte	14
 825 004d 0C       		.byte	12
 826 004e 0F       		.byte	15
 827 004f 02       		.byte	2
 828 0050 10       		.byte	16
 829 0051 05       		.byte	5
ARM GAS  C:\Users\ANDRES~1\AppData\Local\Temp\cc2ZpS1M.s 			page 27


 830 0052 12       		.byte	18
 831 0053 0A       		.byte	10
 832 0054 14       		.byte	20
 833 0055 09       		.byte	9
 834 0056 16       		.byte	22
 835 0057 06       		.byte	6
 836 0058 20       		.byte	32
 837 0059 08       		.byte	8
 838 005a 22       		.byte	34
 839 005b 04       		.byte	4
 840 005c 28       		.byte	40
 841 005d 01       		.byte	1
 842 005e 29       		.byte	41
 843 005f 05       		.byte	5
 844 0060 2A       		.byte	42
 845 0061 02       		.byte	2
 846 0062 2B       		.byte	43
 847 0063 02       		.byte	2
 848 0064 2D       		.byte	45
 849 0065 02       		.byte	2
 850 0066 2F       		.byte	47
 851 0067 05       		.byte	5
 852 0068 30       		.byte	48
 853 0069 03       		.byte	3
 854 006a 32       		.byte	50
 855 006b 0C       		.byte	12
 856 006c 33       		.byte	51
 857 006d 06       		.byte	6
 858 006e 37       		.byte	55
 859 006f 01       		.byte	1
 860 0070 3A       		.byte	58
 861 0071 30       		.byte	48
 862 0072 3E       		.byte	62
 863 0073 05       		.byte	5
 864 0074 3F       		.byte	63
 865 0075 44       		.byte	68
 866 0076 58       		.byte	88
 867 0077 04       		.byte	4
 868 0078 59       		.byte	89
 869 0079 04       		.byte	4
 870 007a 5B       		.byte	91
 871 007b 04       		.byte	4
 872 007c 5F       		.byte	95
 873 007d 01       		.byte	1
 874 007e 88       		.byte	-120
 875 007f 06       		.byte	6
 876 0080 89       		.byte	-119
 877 0081 0A       		.byte	10
 878 0082 8A       		.byte	-118
 879 0083 09       		.byte	9
 880 0084 8B       		.byte	-117
 881 0085 05       		.byte	5
 882 0086 8C       		.byte	-116
 883 0087 09       		.byte	9
 884 0088 8E       		.byte	-114
 885 0089 06       		.byte	6
 886 008a 90       		.byte	-112
ARM GAS  C:\Users\ANDRES~1\AppData\Local\Temp\cc2ZpS1M.s 			page 28


 887 008b 01       		.byte	1
 888 008c 92       		.byte	-110
 889 008d 02       		.byte	2
 890 008e 95       		.byte	-107
 891 008f 01       		.byte	1
 892 0090 97       		.byte	-105
 893 0091 02       		.byte	2
 894 0092 9A       		.byte	-102
 895 0093 03       		.byte	3
 896 0094 9F       		.byte	-97
 897 0095 03       		.byte	3
 898 0096 A1       		.byte	-95
 899 0097 04       		.byte	4
 900 0098 A2       		.byte	-94
 901 0099 03       		.byte	3
 902 009a A3       		.byte	-93
 903 009b 08       		.byte	8
 904 009c A7       		.byte	-89
 905 009d 03       		.byte	3
 906 009e A8       		.byte	-88
 907 009f 08       		.byte	8
 908 00a0 AA       		.byte	-86
 909 00a1 04       		.byte	4
 910 00a2 AD       		.byte	-83
 911 00a3 05       		.byte	5
 912 00a4 AF       		.byte	-81
 913 00a5 0A       		.byte	10
 914 00a6 B0       		.byte	-80
 915 00a7 0C       		.byte	12
 916 00a8 B3       		.byte	-77
 917 00a9 0C       		.byte	12
 918 00aa B4       		.byte	-76
 919 00ab 03       		.byte	3
 920 00ac B7       		.byte	-73
 921 00ad 03       		.byte	3
 922 00ae BE       		.byte	-66
 923 00af 11       		.byte	17
 924 00b0 BF       		.byte	-65
 925 00b1 44       		.byte	68
 926 00b2 D8       		.byte	-40
 927 00b3 04       		.byte	4
 928 00b4 D9       		.byte	-39
 929 00b5 04       		.byte	4
 930 00b6 DB       		.byte	-37
 931 00b7 04       		.byte	4
 932 00b8 DF       		.byte	-33
 933 00b9 01       		.byte	1
 934 00ba 03       		.byte	3
 935 00bb 0A       		.byte	10
 936 00bc 04       		.byte	4
 937 00bd 02       		.byte	2
 938 00be 07       		.byte	7
 939 00bf 02       		.byte	2
 940 00c0 08       		.byte	8
 941 00c1 20       		.byte	32
 942 00c2 0A       		.byte	10
 943 00c3 40       		.byte	64
ARM GAS  C:\Users\ANDRES~1\AppData\Local\Temp\cc2ZpS1M.s 			page 29


 944 00c4 0E       		.byte	14
 945 00c5 40       		.byte	64
 946 00c6 0F       		.byte	15
 947 00c7 90       		.byte	-112
 948 00c8 13       		.byte	19
 949 00c9 12       		.byte	18
 950 00ca 14       		.byte	20
 951 00cb 04       		.byte	4
 952 00cc 17       		.byte	23
 953 00cd 01       		.byte	1
 954 00ce 18       		.byte	24
 955 00cf 08       		.byte	8
 956 00d0 19       		.byte	25
 957 00d1 01       		.byte	1
 958 00d2 1E       		.byte	30
 959 00d3 A4       		.byte	-92
 960 00d4 22       		.byte	34
 961 00d5 08       		.byte	8
 962 00d6 23       		.byte	35
 963 00d7 01       		.byte	1
 964 00d8 26       		.byte	38
 965 00d9 80       		.byte	-128
 966 00da 27       		.byte	39
 967 00db 20       		.byte	32
 968 00dc 28       		.byte	40
 969 00dd 20       		.byte	32
 970 00de 2B       		.byte	43
 971 00df 42       		.byte	66
 972 00e0 2C       		.byte	44
 973 00e1 04       		.byte	4
 974 00e2 2E       		.byte	46
 975 00e3 40       		.byte	64
 976 00e4 2F       		.byte	47
 977 00e5 08       		.byte	8
 978 00e6 32       		.byte	50
 979 00e7 40       		.byte	64
 980 00e8 33       		.byte	51
 981 00e9 08       		.byte	8
 982 00ea 3B       		.byte	59
 983 00eb 10       		.byte	16
 984 00ec 3D       		.byte	61
 985 00ed 80       		.byte	-128
 986 00ee 3F       		.byte	63
 987 00ef 10       		.byte	16
 988 00f0 5E       		.byte	94
 989 00f1 80       		.byte	-128
 990 00f2 68       		.byte	104
 991 00f3 04       		.byte	4
 992 00f4 6A       		.byte	106
 993 00f5 80       		.byte	-128
 994 00f6 6B       		.byte	107
 995 00f7 02       		.byte	2
 996 00f8 6D       		.byte	109
 997 00f9 80       		.byte	-128
 998 00fa 6F       		.byte	111
 999 00fb 03       		.byte	3
 1000 00fc 80       		.byte	-128
ARM GAS  C:\Users\ANDRES~1\AppData\Local\Temp\cc2ZpS1M.s 			page 30


 1001 00fd 25       		.byte	37
 1002 00fe 83       		.byte	-125
 1003 00ff 20       		.byte	32
 1004 0100 84       		.byte	-124
 1005 0101 04       		.byte	4
 1006 0102 86       		.byte	-122
 1007 0103 14       		.byte	20
 1008 0104 8A       		.byte	-118
 1009 0105 88       		.byte	-120
 1010 0106 8D       		.byte	-115
 1011 0107 01       		.byte	1
 1012 0108 92       		.byte	-110
 1013 0109 40       		.byte	64
 1014 010a 93       		.byte	-109
 1015 010b 10       		.byte	16
 1016 010c 97       		.byte	-105
 1017 010d 01       		.byte	1
 1018 010e A3       		.byte	-93
 1019 010f 08       		.byte	8
 1020 0110 B7       		.byte	-73
 1021 0111 20       		.byte	32
 1022 0112 C0       		.byte	-64
 1023 0113 93       		.byte	-109
 1024 0114 C2       		.byte	-62
 1025 0115 3A       		.byte	58
 1026 0116 C4       		.byte	-60
 1027 0117 5A       		.byte	90
 1028 0118 CA       		.byte	-54
 1029 0119 3B       		.byte	59
 1030 011a CC       		.byte	-52
 1031 011b 0A       		.byte	10
 1032 011c CE       		.byte	-50
 1033 011d 34       		.byte	52
 1034 011e D6       		.byte	-42
 1035 011f 10       		.byte	16
 1036 0120 E0       		.byte	-32
 1037 0121 02       		.byte	2
 1038 0122 E2       		.byte	-30
 1039 0123 90       		.byte	-112
 1040 0124 E4       		.byte	-28
 1041 0125 0B       		.byte	11
 1042 0126 E6       		.byte	-26
 1043 0127 04       		.byte	4
 1044 0128 E8       		.byte	-24
 1045 0129 04       		.byte	4
 1046 012a EA       		.byte	-22
 1047 012b 40       		.byte	64
 1048 012c 32       		.byte	50
 1049 012d 20       		.byte	32
 1050 012e 57       		.byte	87
 1051 012f 80       		.byte	-128
 1052 0130 5B       		.byte	91
 1053 0131 04       		.byte	4
 1054 0132 6C       		.byte	108
 1055 0133 04       		.byte	4
 1056 0134 CC       		.byte	-52
 1057 0135 10       		.byte	16
ARM GAS  C:\Users\ANDRES~1\AppData\Local\Temp\cc2ZpS1M.s 			page 31


 1058 0136 D4       		.byte	-44
 1059 0137 40       		.byte	64
 1060 0138 D6       		.byte	-42
 1061 0139 40       		.byte	64
 1062 013a DA       		.byte	-38
 1063 013b 80       		.byte	-128
 1064 013c 1B       		.byte	27
 1065 013d 02       		.byte	2
 1066 013e 48       		.byte	72
 1067 013f 01       		.byte	1
 1068 0140 83       		.byte	-125
 1069 0141 04       		.byte	4
 1070 0142 86       		.byte	-122
 1071 0143 20       		.byte	32
 1072 0144 88       		.byte	-120
 1073 0145 01       		.byte	1
 1074 0146 8C       		.byte	-116
 1075 0147 04       		.byte	4
 1076 0148 94       		.byte	-108
 1077 0149 08       		.byte	8
 1078 014a 9F       		.byte	-97
 1079 014b 04       		.byte	4
 1080 014c A6       		.byte	-90
 1081 014d 20       		.byte	32
 1082 014e A7       		.byte	-89
 1083 014f 02       		.byte	2
 1084 0150 AB       		.byte	-85
 1085 0151 02       		.byte	2
 1086 0152 B7       		.byte	-73
 1087 0153 80       		.byte	-128
 1088 0154 C6       		.byte	-58
 1089 0155 10       		.byte	16
 1090 0156 D2       		.byte	-46
 1091 0157 10       		.byte	16
 1092 0158 E2       		.byte	-30
 1093 0159 80       		.byte	-128
 1094 015a E6       		.byte	-26
 1095 015b 40       		.byte	64
 1096 015c E8       		.byte	-24
 1097 015d 20       		.byte	32
 1098 015e 02       		.byte	2
 1099 015f 01       		.byte	1
 1100 0160 05       		.byte	5
 1101 0161 80       		.byte	-128
 1102 0162 09       		.byte	9
 1103 0163 01       		.byte	1
 1104 0164 36       		.byte	54
 1105 0165 20       		.byte	32
 1106 0166 62       		.byte	98
 1107 0167 02       		.byte	2
 1108 0168 6A       		.byte	106
 1109 0169 40       		.byte	64
 1110 016a 6F       		.byte	111
 1111 016b 80       		.byte	-128
 1112 016c 81       		.byte	-127
 1113 016d 01       		.byte	1
 1114 016e 82       		.byte	-126
ARM GAS  C:\Users\ANDRES~1\AppData\Local\Temp\cc2ZpS1M.s 			page 32


 1115 016f 01       		.byte	1
 1116 0170 85       		.byte	-123
 1117 0171 80       		.byte	-128
 1118 0172 8E       		.byte	-114
 1119 0173 02       		.byte	2
 1120 0174 C0       		.byte	-64
 1121 0175 03       		.byte	3
 1122 0176 C2       		.byte	-62
 1123 0177 08       		.byte	8
 1124 0178 CC       		.byte	-52
 1125 0179 04       		.byte	4
 1126 017a D8       		.byte	-40
 1127 017b 02       		.byte	2
 1128 017c DA       		.byte	-38
 1129 017d 02       		.byte	2
 1130 017e DC       		.byte	-36
 1131 017f 02       		.byte	2
 1132 0180 E4       		.byte	-28
 1133 0181 08       		.byte	8
 1134 0182 18       		.byte	24
 1135 0183 40       		.byte	64
 1136 0184 28       		.byte	40
 1137 0185 80       		.byte	-128
 1138 0186 36       		.byte	54
 1139 0187 20       		.byte	32
 1140 0188 5E       		.byte	94
 1141 0189 01       		.byte	1
 1142 018a 60       		.byte	96
 1143 018b 10       		.byte	16
 1144 018c 63       		.byte	99
 1145 018d 02       		.byte	2
 1146 018e 66       		.byte	102
 1147 018f 01       		.byte	1
 1148 0190 78       		.byte	120
 1149 0191 01       		.byte	1
 1150 0192 80       		.byte	-128
 1151 0193 50       		.byte	80
 1152 0194 84       		.byte	-124
 1153 0195 01       		.byte	1
 1154 0196 86       		.byte	-122
 1155 0197 20       		.byte	32
 1156 0198 87       		.byte	-121
 1157 0199 01       		.byte	1
 1158 019a 8A       		.byte	-118
 1159 019b 01       		.byte	1
 1160 019c 8C       		.byte	-116
 1161 019d 80       		.byte	-128
 1162 019e 8E       		.byte	-114
 1163 019f 01       		.byte	1
 1164 01a0 A6       		.byte	-90
 1165 01a1 20       		.byte	32
 1166 01a2 AA       		.byte	-86
 1167 01a3 40       		.byte	64
 1168 01a4 B7       		.byte	-73
 1169 01a5 80       		.byte	-128
 1170 01a6 C6       		.byte	-58
 1171 01a7 08       		.byte	8
ARM GAS  C:\Users\ANDRES~1\AppData\Local\Temp\cc2ZpS1M.s 			page 33


 1172 01a8 CA       		.byte	-54
 1173 01a9 02       		.byte	2
 1174 01aa CC       		.byte	-52
 1175 01ab 04       		.byte	4
 1176 01ac D6       		.byte	-42
 1177 01ad 03       		.byte	3
 1178 01ae D8       		.byte	-40
 1179 01af 03       		.byte	3
 1180 01b0 DE       		.byte	-34
 1181 01b1 02       		.byte	2
 1182 01b2 E2       		.byte	-30
 1183 01b3 08       		.byte	8
 1184 01b4 E4       		.byte	-28
 1185 01b5 03       		.byte	3
 1186 01b6 E8       		.byte	-24
 1187 01b7 02       		.byte	2
 1188 01b8 10       		.byte	16
 1189 01b9 01       		.byte	1
 1190 01ba 11       		.byte	17
 1191 01bb 01       		.byte	1
 1192              		.text
 1193              	.Letext0:
 1194              		.file 2 "c:\\program files (x86)\\cypress\\psoc creator\\4.2\\psoc creator\\import\\gnu\\arm\\5.4.
 1195              		.file 3 "Generated_Source\\PSoC4\\cytypes.h"