ARM GAS  C:\Users\ANDRES~1\AppData\Local\Temp\ccThvPSw.s 			page 1


   1              		.syntax unified
   2              		.cpu cortex-m0
   3              		.fpu softvfp
   4              		.eabi_attribute 20, 1
   5              		.eabi_attribute 21, 1
   6              		.eabi_attribute 23, 3
   7              		.eabi_attribute 24, 1
   8              		.eabi_attribute 25, 1
   9              		.eabi_attribute 26, 1
  10              		.eabi_attribute 30, 6
  11              		.eabi_attribute 34, 0
  12              		.eabi_attribute 18, 4
  13              		.thumb
  14              		.syntax unified
  15              		.file	"getvalue.c"
  16              		.text
  17              	.Ltext0:
  18              		.cfi_sections	.debug_frame
  19              		.section	.text.VoltageCheck,"ax",%progbits
  20              		.align	2
  21              		.global	VoltageCheck
  22              		.code	16
  23              		.thumb_func
  24              		.type	VoltageCheck, %function
  25              	VoltageCheck:
  26              	.LFB32:
  27              		.file 1 "getvalue.c"
   1:getvalue.c    **** /*******************************************************************************
   2:getvalue.c    **** * Project Name		: Sensored BLDC Motor Control
   3:getvalue.c    **** * File Name			: getvalue.c
   4:getvalue.c    **** * Version			: 1.0
   5:getvalue.c    **** * Device Used		: CY8C4245AXI-483     
   6:getvalue.c    **** * Software Used		: PSoC Creator 4.2
   7:getvalue.c    **** * Compiler Used		: ARM GCC 5.4.1 
   8:getvalue.c    **** * Related Hardware  : CY8CKIT-042 PSoC 4 Pioneer Kit + CY8CKIT-037 PSoC 4
   9:getvalue.c    **** *                     Motor Control Evaluation Kit
  10:getvalue.c    **** ******************************************************************************
  11:getvalue.c    **** * Copyright (2018), Cypress Semiconductor Corporation. All rights reserved.
  12:getvalue.c    **** *******************************************************************************
  13:getvalue.c    **** * This software, including source code, documentation and related materials
  14:getvalue.c    **** * (“Software”), is owned by Cypress Semiconductor Corporation or one of its
  15:getvalue.c    **** * subsidiaries (“Cypress”) and is protected by and subject to worldwide patent
  16:getvalue.c    **** * protection (United States and foreign), United States copyright laws and
  17:getvalue.c    **** * international treaty provisions. Therefore, you may use this Software only
  18:getvalue.c    **** * as provided in the license agreement accompanying the software package from
  19:getvalue.c    **** * which you obtained this Software (“EULA”).
  20:getvalue.c    **** *
  21:getvalue.c    **** * If no EULA applies, Cypress hereby grants you a personal, nonexclusive,
  22:getvalue.c    **** * non-transferable license to copy, modify, and compile the Software source
  23:getvalue.c    **** * code solely for use in connection with Cypress’s integrated circuit products.
  24:getvalue.c    **** * Any reproduction, modification, translation, compilation, or representation
  25:getvalue.c    **** * of this Software except as specified above is prohibited without the express
  26:getvalue.c    **** * written permission of Cypress.
  27:getvalue.c    **** *
  28:getvalue.c    **** * Disclaimer: THIS SOFTWARE IS PROVIDED AS-IS, WITH NO WARRANTY OF ANY KIND, 
  29:getvalue.c    **** * EXPRESS OR IMPLIED, INCLUDING, BUT NOT LIMITED TO, NONINFRINGEMENT, IMPLIED 
  30:getvalue.c    **** * WARRANTIES OF MERCHANTABILITY AND FITNESS FOR A PARTICULAR PURPOSE. Cypress 
ARM GAS  C:\Users\ANDRES~1\AppData\Local\Temp\ccThvPSw.s 			page 2


  31:getvalue.c    **** * reserves the right to make changes to the Software without notice. Cypress 
  32:getvalue.c    **** * does not assume any liability arising out of the application or use of the 
  33:getvalue.c    **** * Software or any product or circuit described in the Software. Cypress does 
  34:getvalue.c    **** * not authorize its products for use in any products where a malfunction or 
  35:getvalue.c    **** * failure of the Cypress product may reasonably be expected to result in 
  36:getvalue.c    **** * significant property damage, injury or death (“High Risk Product”). By 
  37:getvalue.c    **** * including Cypress’s product in a High Risk Product, the manufacturer of such 
  38:getvalue.c    **** * system or application assumes all risk of such use and in doing so agrees to 
  39:getvalue.c    **** * indemnify Cypress against all liability.
  40:getvalue.c    **** *******************************************************************************/
  41:getvalue.c    **** #include <project.h>
  42:getvalue.c    **** #include "speed.h"
  43:getvalue.c    **** #include "motor.h"
  44:getvalue.c    **** #include "getvalue.h"
  45:getvalue.c    **** #include "userinterface.h"
  46:getvalue.c    **** 
  47:getvalue.c    **** /*******************************************************************************
  48:getvalue.c    **** * Function Name: ReadVolt
  49:getvalue.c    **** ********************************************************************************
  50:getvalue.c    **** * Summary:
  51:getvalue.c    **** * The ReadVolt function samples Vbus to protect board from low-voltage and high
  52:getvalue.c    **** * voltage. 
  53:getvalue.c    **** *
  54:getvalue.c    **** * Parameters: None 
  55:getvalue.c    **** *
  56:getvalue.c    **** * Return: None
  57:getvalue.c    **** *
  58:getvalue.c    **** *******************************************************************************/
  59:getvalue.c    **** 
  60:getvalue.c    **** void VoltageCheck(void)
  61:getvalue.c    **** {
  28              		.loc 1 61 0
  29              		.cfi_startproc
  30              		@ args = 0, pretend = 0, frame = 8
  31              		@ frame_needed = 1, uses_anonymous_args = 0
  32 0000 80B5     		push	{r7, lr}
  33              		.cfi_def_cfa_offset 8
  34              		.cfi_offset 7, -8
  35              		.cfi_offset 14, -4
  36 0002 82B0     		sub	sp, sp, #8
  37              		.cfi_def_cfa_offset 16
  38 0004 00AF     		add	r7, sp, #0
  39              		.cfi_def_cfa_register 7
  62:getvalue.c    ****     uint16 adcResult = 0;	
  40              		.loc 1 62 0
  41 0006 BB1D     		adds	r3, r7, #6
  42 0008 0022     		movs	r2, #0
  43 000a 1A80     		strh	r2, [r3]
  63:getvalue.c    ****     static uint16 highVoltCounter = 0;
  64:getvalue.c    ****     static uint16 lowVoltCounter = 0;    
  65:getvalue.c    **** 	adcResult = (ADC_SAR_Seq_1_GetResult16(0) & 0x00ff);       /* filter unwanted MSB, 2011,12,29 */
  44              		.loc 1 65 0
  45 000c 0020     		movs	r0, #0
  46 000e FFF7FEFF 		bl	ADC_SAR_Seq_1_GetResult16
  47 0012 0300     		movs	r3, r0
  48 0014 9AB2     		uxth	r2, r3
  49 0016 BB1D     		adds	r3, r7, #6
ARM GAS  C:\Users\ANDRES~1\AppData\Local\Temp\ccThvPSw.s 			page 3


  50 0018 FF21     		movs	r1, #255
  51 001a 0A40     		ands	r2, r1
  52 001c 1A80     		strh	r2, [r3]
  66:getvalue.c    **** 
  67:getvalue.c    ****    /*Over voltage or under voltage*/
  68:getvalue.c    ****     if(adcResult < LVTHRESHOLD)
  53              		.loc 1 68 0
  54 001e BB1D     		adds	r3, r7, #6
  55 0020 1B88     		ldrh	r3, [r3]
  56 0022 272B     		cmp	r3, #39
  57 0024 06D8     		bhi	.L2
  69:getvalue.c    ****     {
  70:getvalue.c    ****     	lowVoltCounter++;					/*Record low voltage count*/
  58              		.loc 1 70 0
  59 0026 204B     		ldr	r3, .L9
  60 0028 1B88     		ldrh	r3, [r3]
  61 002a 0133     		adds	r3, r3, #1
  62 002c 9AB2     		uxth	r2, r3
  63 002e 1E4B     		ldr	r3, .L9
  64 0030 1A80     		strh	r2, [r3]
  65 0032 1EE0     		b	.L3
  66              	.L2:
  71:getvalue.c    ****     }
  72:getvalue.c    ****     else if (adcResult > HVTHRESHOLD)
  67              		.loc 1 72 0
  68 0034 BB1D     		adds	r3, r7, #6
  69 0036 1B88     		ldrh	r3, [r3]
  70 0038 5A2B     		cmp	r3, #90
  71 003a 06D9     		bls	.L4
  73:getvalue.c    ****     {
  74:getvalue.c    ****     	highVoltCounter++;					/*Record high voltage count*/
  72              		.loc 1 74 0
  73 003c 1B4B     		ldr	r3, .L9+4
  74 003e 1B88     		ldrh	r3, [r3]
  75 0040 0133     		adds	r3, r3, #1
  76 0042 9AB2     		uxth	r2, r3
  77 0044 194B     		ldr	r3, .L9+4
  78 0046 1A80     		strh	r2, [r3]
  79 0048 13E0     		b	.L3
  80              	.L4:
  75:getvalue.c    ****     }	   
  76:getvalue.c    ****     else if((lowVoltCounter>0)||(highVoltCounter>0))		/*Eliminate pulse high or low voltage count*/
  81              		.loc 1 76 0
  82 004a 174B     		ldr	r3, .L9
  83 004c 1B88     		ldrh	r3, [r3]
  84 004e 002B     		cmp	r3, #0
  85 0050 03D1     		bne	.L5
  86              		.loc 1 76 0 is_stmt 0 discriminator 1
  87 0052 164B     		ldr	r3, .L9+4
  88 0054 1B88     		ldrh	r3, [r3]
  89 0056 002B     		cmp	r3, #0
  90 0058 0BD0     		beq	.L3
  91              	.L5:
  77:getvalue.c    ****     {
  78:getvalue.c    ****     	lowVoltCounter--;
  92              		.loc 1 78 0 is_stmt 1
  93 005a 134B     		ldr	r3, .L9
ARM GAS  C:\Users\ANDRES~1\AppData\Local\Temp\ccThvPSw.s 			page 4


  94 005c 1B88     		ldrh	r3, [r3]
  95 005e 013B     		subs	r3, r3, #1
  96 0060 9AB2     		uxth	r2, r3
  97 0062 114B     		ldr	r3, .L9
  98 0064 1A80     		strh	r2, [r3]
  79:getvalue.c    **** 		highVoltCounter--;
  99              		.loc 1 79 0
 100 0066 114B     		ldr	r3, .L9+4
 101 0068 1B88     		ldrh	r3, [r3]
 102 006a 013B     		subs	r3, r3, #1
 103 006c 9AB2     		uxth	r2, r3
 104 006e 0F4B     		ldr	r3, .L9+4
 105 0070 1A80     		strh	r2, [r3]
 106              	.L3:
  80:getvalue.c    ****     }
  81:getvalue.c    **** 	
  82:getvalue.c    ****    /*Last more than voltage error time threshold, then stop motor*/
  83:getvalue.c    ****    	if(lowVoltCounter > LVCNTTHRES)
 107              		.loc 1 83 0
 108 0072 0D4B     		ldr	r3, .L9
 109 0074 1A88     		ldrh	r2, [r3]
 110 0076 A023     		movs	r3, #160
 111 0078 1B01     		lsls	r3, r3, #4
 112 007a 9A42     		cmp	r2, r3
 113 007c 04D9     		bls	.L6
  84:getvalue.c    ****     {       
  85:getvalue.c    ****    		errorState = lowVolt;
 114              		.loc 1 85 0
 115 007e 0C4B     		ldr	r3, .L9+8
 116 0080 0322     		movs	r2, #3
 117 0082 1A70     		strb	r2, [r3]
  86:getvalue.c    ****     	UpdateStatusError();		
 118              		.loc 1 86 0
 119 0084 FFF7FEFF 		bl	UpdateStatusError
 120              	.L6:
  87:getvalue.c    ****     }
  88:getvalue.c    ****     if(highVoltCounter > HVCNTTHRES)
 121              		.loc 1 88 0
 122 0088 084B     		ldr	r3, .L9+4
 123 008a 1A88     		ldrh	r2, [r3]
 124 008c A023     		movs	r3, #160
 125 008e 1B01     		lsls	r3, r3, #4
 126 0090 9A42     		cmp	r2, r3
 127 0092 04D9     		bls	.L8
  89:getvalue.c    ****     {
  90:getvalue.c    ****    		errorState = highVolt;
 128              		.loc 1 90 0
 129 0094 064B     		ldr	r3, .L9+8
 130 0096 0422     		movs	r2, #4
 131 0098 1A70     		strb	r2, [r3]
  91:getvalue.c    ****     	UpdateStatusError();
 132              		.loc 1 91 0
 133 009a FFF7FEFF 		bl	UpdateStatusError
 134              	.L8:
  92:getvalue.c    ****     }
  93:getvalue.c    **** }
 135              		.loc 1 93 0
ARM GAS  C:\Users\ANDRES~1\AppData\Local\Temp\ccThvPSw.s 			page 5


 136 009e C046     		nop
 137 00a0 BD46     		mov	sp, r7
 138 00a2 02B0     		add	sp, sp, #8
 139              		@ sp needed
 140 00a4 80BD     		pop	{r7, pc}
 141              	.L10:
 142 00a6 C046     		.align	2
 143              	.L9:
 144 00a8 00000000 		.word	lowVoltCounter.6339
 145 00ac 02000000 		.word	highVoltCounter.6338
 146 00b0 00000000 		.word	errorState
 147              		.cfi_endproc
 148              	.LFE32:
 149              		.size	VoltageCheck, .-VoltageCheck
 150              		.global	__aeabi_uidiv
 151              		.section	.text.ReadRpmRef,"ax",%progbits
 152              		.align	2
 153              		.global	ReadRpmRef
 154              		.code	16
 155              		.thumb_func
 156              		.type	ReadRpmRef, %function
 157              	ReadRpmRef:
 158              	.LFB33:
  94:getvalue.c    **** 
  95:getvalue.c    **** /*******************************************************************************
  96:getvalue.c    **** * Function Name: ReadRpmRef
  97:getvalue.c    **** ********************************************************************************
  98:getvalue.c    **** * Summary:
  99:getvalue.c    **** * The ReadRpmRef function reads speed reference value from potentiometer. 
 100:getvalue.c    **** *
 101:getvalue.c    **** * Parameters: None  
 102:getvalue.c    **** *
 103:getvalue.c    **** * Return: uint16  
 104:getvalue.c    **** *
 105:getvalue.c    **** *******************************************************************************/
 106:getvalue.c    **** uint16 ReadRpmRef(void)
 107:getvalue.c    **** {
 159              		.loc 1 107 0
 160              		.cfi_startproc
 161              		@ args = 0, pretend = 0, frame = 8
 162              		@ frame_needed = 1, uses_anonymous_args = 0
 163 0000 90B5     		push	{r4, r7, lr}
 164              		.cfi_def_cfa_offset 12
 165              		.cfi_offset 4, -12
 166              		.cfi_offset 7, -8
 167              		.cfi_offset 14, -4
 168 0002 83B0     		sub	sp, sp, #12
 169              		.cfi_def_cfa_offset 24
 170 0004 00AF     		add	r7, sp, #0
 171              		.cfi_def_cfa_register 7
 108:getvalue.c    ****     uint16 speedSampleCur = (ADC_SAR_Seq_1_GetResult16(SPEED_REF_CHAN) & 0x0FFF); 
 172              		.loc 1 108 0
 173 0006 0120     		movs	r0, #1
 174 0008 FFF7FEFF 		bl	ADC_SAR_Seq_1_GetResult16
 175 000c 0300     		movs	r3, r0
 176 000e 9AB2     		uxth	r2, r3
 177 0010 BB1D     		adds	r3, r7, #6
ARM GAS  C:\Users\ANDRES~1\AppData\Local\Temp\ccThvPSw.s 			page 6


 178 0012 1205     		lsls	r2, r2, #20
 179 0014 120D     		lsrs	r2, r2, #20
 180 0016 1A80     		strh	r2, [r3]
 109:getvalue.c    ****     uint16 speedRange = UI_Data.maxSpeedRpm - UI_Data.minSpeedRpm;
 181              		.loc 1 109 0
 182 0018 194B     		ldr	r3, .L15
 183 001a 5989     		ldrh	r1, [r3, #10]
 184 001c 184B     		ldr	r3, .L15
 185 001e 9A89     		ldrh	r2, [r3, #12]
 186 0020 3B1D     		adds	r3, r7, #4
 187 0022 8A1A     		subs	r2, r1, r2
 188 0024 1A80     		strh	r2, [r3]
 110:getvalue.c    ****     uint16 speedGiven = 0;
 189              		.loc 1 110 0
 190 0026 BB1C     		adds	r3, r7, #2
 191 0028 0022     		movs	r2, #0
 192 002a 1A80     		strh	r2, [r3]
 111:getvalue.c    ****     
 112:getvalue.c    ****     if(speedSampleCur > MAX_SPEED_REF_ADC_VALUE)
 193              		.loc 1 112 0
 194 002c BB1D     		adds	r3, r7, #6
 195 002e 1B88     		ldrh	r3, [r3]
 196 0030 144A     		ldr	r2, .L15+4
 197 0032 9342     		cmp	r3, r2
 198 0034 02D9     		bls	.L12
 113:getvalue.c    ****         speedSampleCur = MAX_SPEED_REF_ADC_VALUE;
 199              		.loc 1 113 0
 200 0036 BB1D     		adds	r3, r7, #6
 201 0038 124A     		ldr	r2, .L15+4
 202 003a 1A80     		strh	r2, [r3]
 203              	.L12:
 114:getvalue.c    ****     if(speedSampleCur < MIN_SPEED_REF_ADC_VALUE)
 204              		.loc 1 114 0
 205 003c BB1D     		adds	r3, r7, #6
 206 003e 1B88     		ldrh	r3, [r3]
 207 0040 9B2B     		cmp	r3, #155
 208 0042 02D8     		bhi	.L13
 115:getvalue.c    ****         speedSampleCur = MIN_SPEED_REF_ADC_VALUE;
 209              		.loc 1 115 0
 210 0044 BB1D     		adds	r3, r7, #6
 211 0046 9C22     		movs	r2, #156
 212 0048 1A80     		strh	r2, [r3]
 213              	.L13:
 116:getvalue.c    ****     
 117:getvalue.c    ****     speedSampleCur -= MIN_SPEED_REF_ADC_VALUE;
 214              		.loc 1 117 0
 215 004a BB1D     		adds	r3, r7, #6
 216 004c BA1D     		adds	r2, r7, #6
 217 004e 1288     		ldrh	r2, [r2]
 218 0050 9C3A     		subs	r2, r2, #156
 219 0052 1A80     		strh	r2, [r3]
 118:getvalue.c    ****     speedGiven = UI_Data.minSpeedRpm + ((uint32)(speedSampleCur * speedRange) / 
 220              		.loc 1 118 0
 221 0054 0A4B     		ldr	r3, .L15
 222 0056 9C89     		ldrh	r4, [r3, #12]
 223 0058 BB1D     		adds	r3, r7, #6
 224 005a 1B88     		ldrh	r3, [r3]
ARM GAS  C:\Users\ANDRES~1\AppData\Local\Temp\ccThvPSw.s 			page 7


 225 005c 3A1D     		adds	r2, r7, #4
 226 005e 1288     		ldrh	r2, [r2]
 227 0060 5343     		muls	r3, r2
 228 0062 0949     		ldr	r1, .L15+8
 229 0064 1800     		movs	r0, r3
 230 0066 FFF7FEFF 		bl	__aeabi_uidiv
 231 006a 0300     		movs	r3, r0
 232 006c 9AB2     		uxth	r2, r3
 233 006e BB1C     		adds	r3, r7, #2
 234 0070 A218     		adds	r2, r4, r2
 235 0072 1A80     		strh	r2, [r3]
 119:getvalue.c    ****                                                (MAX_SPEED_REF_ADC_VALUE - MIN_SPEED_REF_ADC_VALUE))
 120:getvalue.c    ****     
 121:getvalue.c    ****     return speedGiven;
 236              		.loc 1 121 0
 237 0074 BB1C     		adds	r3, r7, #2
 238 0076 1B88     		ldrh	r3, [r3]
 122:getvalue.c    **** //    uint16 speedSampleCur = MIN_SPEED_REF_ADC_VALUE; //(ADC_SAR_Seq_1_GetResult16(SPEED_REF_CHAN)
 123:getvalue.c    **** //    uint16 speedRange = UI_Data.maxSpeedRpm - UI_Data.minSpeedRpm;
 124:getvalue.c    **** //    uint16 speedGiven = 0;
 125:getvalue.c    **** //    
 126:getvalue.c    **** //    
 127:getvalue.c    **** //    if(speedSampleCur > MAX_SPEED_REF_ADC_VALUE)
 128:getvalue.c    **** //        speedSampleCur = MAX_SPEED_REF_ADC_VALUE;
 129:getvalue.c    **** //    if(speedSampleCur < MIN_SPEED_REF_ADC_VALUE)
 130:getvalue.c    **** //        speedSampleCur = MIN_SPEED_REF_ADC_VALUE;
 131:getvalue.c    **** //    
 132:getvalue.c    **** //    uint16 velocidadMotor = speedSampleCur - MIN_SPEED_REF_ADC_VALUE;
 133:getvalue.c    **** //    speedGiven = UI_Data.minSpeedRpm + ((uint32)(velocidadMotor * speedRange) / 
 134:getvalue.c    **** //                                           (MAX_SPEED_REF_ADC_VALUE - MIN_SPEED_REF_ADC_VALUE));
 135:getvalue.c    **** //   
 136:getvalue.c    **** //    return speedGiven;
 137:getvalue.c    **** }
 239              		.loc 1 137 0
 240 0078 1800     		movs	r0, r3
 241 007a BD46     		mov	sp, r7
 242 007c 03B0     		add	sp, sp, #12
 243              		@ sp needed
 244 007e 90BD     		pop	{r4, r7, pc}
 245              	.L16:
 246              		.align	2
 247              	.L15:
 248 0080 00000000 		.word	UI_Data
 249 0084 630F0000 		.word	3939
 250 0088 C70E0000 		.word	3783
 251              		.cfi_endproc
 252              	.LFE33:
 253              		.size	ReadRpmRef, .-ReadRpmRef
 254              		.bss
 255              		.align	1
 256              	lowVoltCounter.6339:
 257 0000 0000     		.space	2
 258              		.align	1
 259              	highVoltCounter.6338:
 260 0002 0000     		.space	2
 261              		.text
 262              	.Letext0:
ARM GAS  C:\Users\ANDRES~1\AppData\Local\Temp\ccThvPSw.s 			page 8


 263              		.file 2 "Generated_Source\\PSoC4/cytypes.h"
 264              		.file 3 "motor.h"