ARM GAS  C:\Users\ANDRES~1\AppData\Local\Temp\ccu2TWt9.s 			page 1


   1              		.syntax unified
   2              		.cpu cortex-m0
   3              		.fpu softvfp
   4              		.eabi_attribute 20, 1
   5              		.eabi_attribute 21, 1
   6              		.eabi_attribute 23, 3
   7              		.eabi_attribute 24, 1
   8              		.eabi_attribute 25, 1
   9              		.eabi_attribute 26, 1
  10              		.eabi_attribute 30, 6
  11              		.eabi_attribute 34, 0
  12              		.eabi_attribute 18, 4
  13              		.thumb
  14              		.syntax unified
  15              		.file	"main.c"
  16              		.text
  17              	.Ltext0:
  18              		.cfi_sections	.debug_frame
  19              		.comm	rxBuffer,8,4
  20              		.comm	txBuffer,8,4
  21              		.global	isDataAvailable
  22              		.bss
  23              		.type	isDataAvailable, %object
  24              		.size	isDataAvailable, 1
  25              	isDataAvailable:
  26 0000 00       		.space	1
  27              		.global	numeroDeFallas
  28              		.type	numeroDeFallas, %object
  29              		.size	numeroDeFallas, 1
  30              	numeroDeFallas:
  31 0001 00       		.space	1
  32              		.global	radioCurva
  33 0002 0000     		.align	2
  34              		.type	radioCurva, %object
  35              		.size	radioCurva, 4
  36              	radioCurva:
  37 0004 00000000 		.space	4
  38              		.global	offset
  39              		.align	2
  40              		.type	offset, %object
  41              		.size	offset, 4
  42              	offset:
  43 0008 00000000 		.space	4
  44              		.global	vueltaIzquierda
  45              		.data
  46              		.type	vueltaIzquierda, %object
  47              		.size	vueltaIzquierda, 1
  48              	vueltaIzquierda:
  49 0000 01       		.byte	1
  50              		.global	anguloGiro
  51              		.bss
  52              		.align	2
  53              		.type	anguloGiro, %object
  54              		.size	anguloGiro, 4
  55              	anguloGiro:
  56 000c 00000000 		.space	4
  57              		.global	porcentajeRPM
ARM GAS  C:\Users\ANDRES~1\AppData\Local\Temp\ccu2TWt9.s 			page 2


  58              		.align	2
  59              		.type	porcentajeRPM, %object
  60              		.size	porcentajeRPM, 4
  61              	porcentajeRPM:
  62 0010 00000000 		.space	4
  63              		.section	.text.IRSHandler,"ax",%progbits
  64              		.align	2
  65              		.global	IRSHandler
  66              		.code	16
  67              		.thumb_func
  68              		.type	IRSHandler, %function
  69              	IRSHandler:
  70              	.LFB32:
  71              		.file 1 "main.c"
   1:main.c        **** /*******************************************************************************
   2:main.c        **** * Project Name		: Sensored BLDC Motor Control
   3:main.c        **** * File Name			: main.c
   4:main.c        **** * Version			: 1.0
   5:main.c        **** * Device Used		: CY8C4245AXI-483     
   6:main.c        **** * Software Used		: PSoC Creator 4.2
   7:main.c        **** * Compiler Used		: ARM GCC 5.4.1 
   8:main.c        **** * Related Hardware  : CY8CKIT-042 PSoC 4 Pioneer Kit + CY8CKIT-037 PSoC 4
   9:main.c        **** *                     Motor Control Evaluation Kit
  10:main.c        **** ******************************************************************************
  11:main.c        **** * Copyright (2018), Cypress Semiconductor Corporation. All rights reserved.
  12:main.c        **** *******************************************************************************
  13:main.c        **** * This software, including source code, documentation and related materials
  14:main.c        **** * (“Software”), is owned by Cypress Semiconductor Corporation or one of its
  15:main.c        **** * subsidiaries (“Cypress”) and is protected by and subject to worldwide patent
  16:main.c        **** * protection (United States and foreign), United States copyright laws and
  17:main.c        **** * international treaty provisions. Therefore, you may use this Software only
  18:main.c        **** * as provided in the license agreement accompanying the software package from
  19:main.c        **** * which you obtained this Software (“EULA”).
  20:main.c        **** *
  21:main.c        **** * If no EULA applies, Cypress hereby grants you a personal, nonexclusive,
  22:main.c        **** * non-transferable license to copy, modify, and compile the Software source
  23:main.c        **** * code solely for use in connection with Cypress’s integrated circuit products.
  24:main.c        **** * Any reproduction, modification, translation, compilation, or representation
  25:main.c        **** * of this Software except as specified above is prohibited without the express
  26:main.c        **** * written permission of Cypress.
  27:main.c        **** *
  28:main.c        **** * Disclaimer: THIS SOFTWARE IS PROVIDED AS-IS, WITH NO WARRANTY OF ANY KIND, 
  29:main.c        **** * EXPRESS OR IMPLIED, INCLUDING, BUT NOT LIMITED TO, NONINFRINGEMENT, IMPLIED 
  30:main.c        **** * WARRANTIES OF MERCHANTABILITY AND FITNESS FOR A PARTICULAR PURPOSE. Cypress 
  31:main.c        **** * reserves the right to make changes to the Software without notice. Cypress 
  32:main.c        **** * does not assume any liability arising out of the application or use of the 
  33:main.c        **** * Software or any product or circuit described in the Software. Cypress does 
  34:main.c        **** * not authorize its products for use in any products where a malfunction or 
  35:main.c        **** * failure of the Cypress product may reasonably be expected to result in 
  36:main.c        **** * significant property damage, injury or death (“High Risk Product”). By 
  37:main.c        **** * including Cypress’s product in a High Risk Product, the manufacturer of such 
  38:main.c        **** * system or application assumes all risk of such use and in doing so agrees to 
  39:main.c        **** * indemnify Cypress against all liability.
  40:main.c        **** *******************************************************************************/
  41:main.c        **** #include <math.h>
  42:main.c        **** #include <project.h>
  43:main.c        **** #include "motor.h"
ARM GAS  C:\Users\ANDRES~1\AppData\Local\Temp\ccu2TWt9.s 			page 3


  44:main.c        **** #include "speed.h"
  45:main.c        **** #include "userinterface.h"
  46:main.c        **** #include "getvalue.h"
  47:main.c        **** 
  48:main.c        **** // Datos fijos del problema
  49:main.c        **** #define largoCarro (0.4)
  50:main.c        **** #define MaxRPM 1200
  51:main.c        **** #define reduccionRPM 4.5
  52:main.c        **** #define circumferenciaLlanta (3.1416*10.2)
  53:main.c        **** #define velocidadMax 0.5
  54:main.c        **** 
  55:main.c        **** // Parametros definidos para la comunicacion con PiCamera
  56:main.c        **** #define rxBufferSize (8u)
  57:main.c        **** #define rxPacketSize (8u)
  58:main.c        **** #define maxNumeroDeFallasAntesDeParar (75)
  59:main.c        **** uint8 rxBuffer[rxPacketSize];
  60:main.c        **** uint8 txBuffer[rxPacketSize];
  61:main.c        **** uint8 isDataAvailable = 0;
  62:main.c        **** uint8 numeroDeFallas = 0;
  63:main.c        **** 
  64:main.c        **** // Datos recibidos del PiCamera
  65:main.c        **** float radioCurva = 0;
  66:main.c        **** float offset = 0;
  67:main.c        **** uint8 vueltaIzquierda = TRUE;
  68:main.c        **** 
  69:main.c        **** // Datos calculados con base a datos de PiCamera
  70:main.c        **** float anguloGiro = 0.0;
  71:main.c        **** float porcentajeRPM = 0.0;
  72:main.c        **** 
  73:main.c        **** //uint16 indiceActual = 0;
  74:main.c        **** //uint8 numVecesRepetidas = 1;
  75:main.c        **** //uint16 numVelocidades = MAX_SPEED_REF_ADC_VALUE - MIN_SPEED_REF_ADC_VALUE;
  76:main.c        **** 
  77:main.c        **** void IRSHandler(){
  72              		.loc 1 77 0
  73              		.cfi_startproc
  74              		@ args = 0, pretend = 0, frame = 8
  75              		@ frame_needed = 1, uses_anonymous_args = 0
  76 0000 80B5     		push	{r7, lr}
  77              		.cfi_def_cfa_offset 8
  78              		.cfi_offset 7, -8
  79              		.cfi_offset 14, -4
  80 0002 82B0     		sub	sp, sp, #8
  81              		.cfi_def_cfa_offset 16
  82 0004 00AF     		add	r7, sp, #0
  83              		.cfi_def_cfa_register 7
  78:main.c        ****     
  79:main.c        ****     /* Waits for the end of the data transfer */
  80:main.c        ****     while (rxPacketSize != UART_Pi_SpiUartGetRxBufferSize());
  84              		.loc 1 80 0
  85 0006 C046     		nop
  86              	.L2:
  87              		.loc 1 80 0 is_stmt 0 discriminator 1
  88 0008 FFF7FEFF 		bl	UART_Pi_SpiUartGetRxBufferSize
  89 000c 0300     		movs	r3, r0
  90 000e 082B     		cmp	r3, #8
  91 0010 FAD1     		bne	.L2
ARM GAS  C:\Users\ANDRES~1\AppData\Local\Temp\ccu2TWt9.s 			page 4


  81:main.c        ****     
  82:main.c        ****     uint8 i = 0;
  92              		.loc 1 82 0 is_stmt 1
  93 0012 FB1D     		adds	r3, r7, #7
  94 0014 0022     		movs	r2, #0
  95 0016 1A70     		strb	r2, [r3]
  83:main.c        ****     while (0u != UART_Pi_SpiUartGetRxBufferSize()){
  96              		.loc 1 83 0
  97 0018 0EE0     		b	.L3
  98              	.L4:
  99              	.LBB2:
  84:main.c        ****         uint32 readData = UART_Pi_UartGetByte();
 100              		.loc 1 84 0
 101 001a FFF7FEFF 		bl	UART_Pi_UartGetByte
 102 001e 0300     		movs	r3, r0
 103 0020 3B60     		str	r3, [r7]
  85:main.c        ****         rxBuffer[i] = (uint8) (readData & 0xFF);
 104              		.loc 1 85 0
 105 0022 FB1D     		adds	r3, r7, #7
 106 0024 1B78     		ldrb	r3, [r3]
 107 0026 3A68     		ldr	r2, [r7]
 108 0028 D1B2     		uxtb	r1, r2
 109 002a 0B4A     		ldr	r2, .L5
 110 002c D154     		strb	r1, [r2, r3]
  86:main.c        ****         i++;
 111              		.loc 1 86 0
 112 002e FB1D     		adds	r3, r7, #7
 113 0030 1A78     		ldrb	r2, [r3]
 114 0032 FB1D     		adds	r3, r7, #7
 115 0034 0132     		adds	r2, r2, #1
 116 0036 1A70     		strb	r2, [r3]
 117              	.L3:
 118              	.LBE2:
  83:main.c        ****         uint32 readData = UART_Pi_UartGetByte();
 119              		.loc 1 83 0
 120 0038 FFF7FEFF 		bl	UART_Pi_SpiUartGetRxBufferSize
 121 003c 031E     		subs	r3, r0, #0
 122 003e ECD1     		bne	.L4
  87:main.c        ****     }
  88:main.c        ****     
  89:main.c        ****     /* Clears out the Rx buffer */
  90:main.c        ****     UART_Pi_SpiUartClearRxBuffer();
 123              		.loc 1 90 0
 124 0040 FFF7FEFF 		bl	UART_Pi_SpiUartClearRxBuffer
  91:main.c        ****     
  92:main.c        ****     /* Clears the interrupt source */
  93:main.c        ****     UART_Pi_ClearRxInterruptSource(UART_Pi_INTR_RX_NOT_EMPTY);
 125              		.loc 1 93 0
 126 0044 054B     		ldr	r3, .L5+4
 127 0046 0422     		movs	r2, #4
 128 0048 1A60     		str	r2, [r3]
  94:main.c        ****     
  95:main.c        ****     /* Tell the program that new data is available */
  96:main.c        ****     isDataAvailable = 1;
 129              		.loc 1 96 0
 130 004a 054B     		ldr	r3, .L5+8
 131 004c 0122     		movs	r2, #1
ARM GAS  C:\Users\ANDRES~1\AppData\Local\Temp\ccu2TWt9.s 			page 5


 132 004e 1A70     		strb	r2, [r3]
  97:main.c        **** }
 133              		.loc 1 97 0
 134 0050 C046     		nop
 135 0052 BD46     		mov	sp, r7
 136 0054 02B0     		add	sp, sp, #8
 137              		@ sp needed
 138 0056 80BD     		pop	{r7, pc}
 139              	.L6:
 140              		.align	2
 141              	.L5:
 142 0058 00000000 		.word	rxBuffer
 143 005c C00F0740 		.word	1074204608
 144 0060 00000000 		.word	isDataAvailable
 145              		.cfi_endproc
 146              	.LFE32:
 147              		.size	IRSHandler, .-IRSHandler
 148              		.global	__aeabi_fdiv
 149              		.global	__aeabi_fsub
 150              		.global	__aeabi_f2d
 151              		.global	__aeabi_ddiv
 152              		.global	__aeabi_d2f
 153              		.global	__aeabi_dmul
 154              		.global	__aeabi_dadd
 155              		.section	.text.interpretaDatos,"ax",%progbits
 156              		.align	2
 157              		.global	interpretaDatos
 158              		.code	16
 159              		.thumb_func
 160              		.type	interpretaDatos, %function
 161              	interpretaDatos:
 162              	.LFB33:
  98:main.c        **** 
  99:main.c        **** void interpretaDatos(){
 163              		.loc 1 99 0
 164              		.cfi_startproc
 165              		@ args = 0, pretend = 0, frame = 0
 166              		@ frame_needed = 1, uses_anonymous_args = 0
 167 0000 B0B5     		push	{r4, r5, r7, lr}
 168              		.cfi_def_cfa_offset 16
 169              		.cfi_offset 4, -16
 170              		.cfi_offset 5, -12
 171              		.cfi_offset 7, -8
 172              		.cfi_offset 14, -4
 173 0002 00AF     		add	r7, sp, #0
 174              		.cfi_def_cfa_register 7
 100:main.c        ****     radioCurva = *((float *) rxBuffer)/100;
 175              		.loc 1 100 0
 176 0004 2D4B     		ldr	r3, .L8
 177 0006 1B68     		ldr	r3, [r3]
 178 0008 2D49     		ldr	r1, .L8+4
 179 000a 181C     		adds	r0, r3, #0
 180 000c FFF7FEFF 		bl	__aeabi_fdiv
 181 0010 031C     		adds	r3, r0, #0
 182 0012 1A1C     		adds	r2, r3, #0
 183 0014 2B4B     		ldr	r3, .L8+8
 184 0016 1A60     		str	r2, [r3]
ARM GAS  C:\Users\ANDRES~1\AppData\Local\Temp\ccu2TWt9.s 			page 6


 101:main.c        ****     offset = *((float *) rxBuffer+5)/100;
 185              		.loc 1 101 0
 186 0018 2B4B     		ldr	r3, .L8+12
 187 001a 1B68     		ldr	r3, [r3]
 188 001c 2849     		ldr	r1, .L8+4
 189 001e 181C     		adds	r0, r3, #0
 190 0020 FFF7FEFF 		bl	__aeabi_fdiv
 191 0024 031C     		adds	r3, r0, #0
 192 0026 1A1C     		adds	r2, r3, #0
 193 0028 284B     		ldr	r3, .L8+16
 194 002a 1A60     		str	r2, [r3]
 102:main.c        ****     vueltaIzquierda = *((uint8 *) rxBuffer+7);
 195              		.loc 1 102 0
 196 002c 234B     		ldr	r3, .L8
 197 002e DA79     		ldrb	r2, [r3, #7]
 198 0030 274B     		ldr	r3, .L8+20
 199 0032 1A70     		strb	r2, [r3]
 103:main.c        ****     
 104:main.c        ****     anguloGiro = (double) tanh( (double) (largoCarro/(radioCurva-offset)) );
 200              		.loc 1 104 0
 201 0034 234B     		ldr	r3, .L8+8
 202 0036 1A68     		ldr	r2, [r3]
 203 0038 244B     		ldr	r3, .L8+16
 204 003a 1B68     		ldr	r3, [r3]
 205 003c 191C     		adds	r1, r3, #0
 206 003e 101C     		adds	r0, r2, #0
 207 0040 FFF7FEFF 		bl	__aeabi_fsub
 208 0044 031C     		adds	r3, r0, #0
 209 0046 181C     		adds	r0, r3, #0
 210 0048 FFF7FEFF 		bl	__aeabi_f2d
 211 004c 0300     		movs	r3, r0
 212 004e 0C00     		movs	r4, r1
 213 0050 1A00     		movs	r2, r3
 214 0052 2300     		movs	r3, r4
 215 0054 1F48     		ldr	r0, .L8+24
 216 0056 2049     		ldr	r1, .L8+28
 217 0058 FFF7FEFF 		bl	__aeabi_ddiv
 218 005c 0300     		movs	r3, r0
 219 005e 0C00     		movs	r4, r1
 220 0060 1800     		movs	r0, r3
 221 0062 2100     		movs	r1, r4
 222 0064 FFF7FEFF 		bl	tanh
 223 0068 0300     		movs	r3, r0
 224 006a 0C00     		movs	r4, r1
 225 006c 1800     		movs	r0, r3
 226 006e 2100     		movs	r1, r4
 227 0070 FFF7FEFF 		bl	__aeabi_d2f
 228 0074 021C     		adds	r2, r0, #0
 229 0076 194B     		ldr	r3, .L8+32
 230 0078 1A60     		str	r2, [r3]
 105:main.c        ****     porcentajeRPM = -1.8 * anguloGiro + 100; // Funcion que describe un comportamiento de [0°->100
 231              		.loc 1 105 0
 232 007a 184B     		ldr	r3, .L8+32
 233 007c 1B68     		ldr	r3, [r3]
 234 007e 181C     		adds	r0, r3, #0
 235 0080 FFF7FEFF 		bl	__aeabi_f2d
 236 0084 164A     		ldr	r2, .L8+36
ARM GAS  C:\Users\ANDRES~1\AppData\Local\Temp\ccu2TWt9.s 			page 7


 237 0086 174B     		ldr	r3, .L8+40
 238 0088 FFF7FEFF 		bl	__aeabi_dmul
 239 008c 0300     		movs	r3, r0
 240 008e 0C00     		movs	r4, r1
 241 0090 1800     		movs	r0, r3
 242 0092 2100     		movs	r1, r4
 243 0094 0022     		movs	r2, #0
 244 0096 144B     		ldr	r3, .L8+44
 245 0098 FFF7FEFF 		bl	__aeabi_dadd
 246 009c 0300     		movs	r3, r0
 247 009e 0C00     		movs	r4, r1
 248 00a0 1800     		movs	r0, r3
 249 00a2 2100     		movs	r1, r4
 250 00a4 FFF7FEFF 		bl	__aeabi_d2f
 251 00a8 021C     		adds	r2, r0, #0
 252 00aa 104B     		ldr	r3, .L8+48
 253 00ac 1A60     		str	r2, [r3]
 106:main.c        ****     
 107:main.c        ****     numeroDeFallas = 0;
 254              		.loc 1 107 0
 255 00ae 104B     		ldr	r3, .L8+52
 256 00b0 0022     		movs	r2, #0
 257 00b2 1A70     		strb	r2, [r3]
 108:main.c        **** }
 258              		.loc 1 108 0
 259 00b4 C046     		nop
 260 00b6 BD46     		mov	sp, r7
 261              		@ sp needed
 262 00b8 B0BD     		pop	{r4, r5, r7, pc}
 263              	.L9:
 264 00ba C046     		.align	2
 265              	.L8:
 266 00bc 00000000 		.word	rxBuffer
 267 00c0 0000C842 		.word	1120403456
 268 00c4 00000000 		.word	radioCurva
 269 00c8 14000000 		.word	rxBuffer+20
 270 00cc 00000000 		.word	offset
 271 00d0 00000000 		.word	vueltaIzquierda
 272 00d4 9A999999 		.word	-1717986918
 273 00d8 9999D93F 		.word	1071225241
 274 00dc 00000000 		.word	anguloGiro
 275 00e0 CDCCCCCC 		.word	-858993459
 276 00e4 CCCCFCBF 		.word	-1073951540
 277 00e8 00005940 		.word	1079574528
 278 00ec 00000000 		.word	porcentajeRPM
 279 00f0 00000000 		.word	numeroDeFallas
 280              		.cfi_endproc
 281              	.LFE33:
 282              		.size	interpretaDatos, .-interpretaDatos
 283              		.global	__aeabi_fmul
 284              		.global	__aeabi_f2uiz
 285              		.global	__aeabi_uidiv
 286              		.section	.text.main,"ax",%progbits
 287              		.align	2
 288              		.global	main
 289              		.code	16
 290              		.thumb_func
ARM GAS  C:\Users\ANDRES~1\AppData\Local\Temp\ccu2TWt9.s 			page 8


 291              		.type	main, %function
 292              	main:
 293              	.LFB34:
 109:main.c        **** 
 110:main.c        **** int main()
 111:main.c        **** {
 294              		.loc 1 111 0
 295              		.cfi_startproc
 296              		@ args = 0, pretend = 0, frame = 16
 297              		@ frame_needed = 1, uses_anonymous_args = 0
 298 0000 90B5     		push	{r4, r7, lr}
 299              		.cfi_def_cfa_offset 12
 300              		.cfi_offset 4, -12
 301              		.cfi_offset 7, -8
 302              		.cfi_offset 14, -4
 303 0002 85B0     		sub	sp, sp, #20
 304              		.cfi_def_cfa_offset 32
 305 0004 00AF     		add	r7, sp, #0
 306              		.cfi_def_cfa_register 7
 112:main.c        ****     uint8 HallReader =0;    
 307              		.loc 1 112 0
 308 0006 0D23     		movs	r3, #13
 309 0008 FB18     		adds	r3, r7, r3
 310 000a 0022     		movs	r2, #0
 311 000c 1A70     		strb	r2, [r3]
 113:main.c        **** 	uint16 pwmCntLocal = 0;
 312              		.loc 1 113 0
 313 000e 0E23     		movs	r3, #14
 314 0010 FB18     		adds	r3, r7, r3
 315 0012 0022     		movs	r2, #0
 316 0014 1A80     		strh	r2, [r3]
 114:main.c        ****     
 115:main.c        ****     /* initialize communication with PiCamera*/
 116:main.c        ****     UART_Pi_SetCustomInterruptHandler(&IRSHandler);
 317              		.loc 1 116 0
 318 0016 7C4B     		ldr	r3, .L22
 319 0018 1800     		movs	r0, r3
 320 001a FFF7FEFF 		bl	UART_Pi_SetCustomInterruptHandler
 117:main.c        ****     UART_Pi_EnableInt();
 321              		.loc 1 117 0
 322 001e 0B20     		movs	r0, #11
 323 0020 FFF7FEFF 		bl	CyIntEnable
 118:main.c        ****     UART_Pi_Start();
 324              		.loc 1 118 0
 325 0024 FFF7FEFF 		bl	UART_Pi_Start
 119:main.c        ****     
 120:main.c        ****     /* initialize parameters in UI FW */
 121:main.c        ****     Init_UI_FW();    
 326              		.loc 1 121 0
 327 0028 FFF7FEFF 		bl	Init_UI_FW
 122:main.c        ****     /* disable global interrupt */ 
 123:main.c        **** 	CyGlobalIntDisable;	
 328              		.loc 1 123 0
 329              		.syntax divided
 330              	@ 123 "main.c" 1
 331 002c 72B6     		CPSID   i
 332              	@ 0 "" 2
ARM GAS  C:\Users\ANDRES~1\AppData\Local\Temp\ccu2TWt9.s 			page 9


 124:main.c        ****     /* initialize system hardware components */	
 125:main.c        ****     Init_HW();   	
 333              		.loc 1 125 0
 334              		.thumb
 335              		.syntax unified
 336 002e FFF7FEFF 		bl	Init_HW
 126:main.c        ****     
 127:main.c        ****     /*Enable Global interrupt*/
 128:main.c        **** 	CyGlobalIntEnable;
 337              		.loc 1 128 0
 338              		.syntax divided
 339              	@ 128 "main.c" 1
 340 0032 62B6     		CPSIE   i
 341              	@ 0 "" 2
 129:main.c        ****     /* initialize UI hardware components */ 
 130:main.c        **** 	Init_UI_HW();
 342              		.loc 1 130 0
 343              		.thumb
 344              		.syntax unified
 345 0034 FFF7FEFF 		bl	Init_UI_HW
 131:main.c        ****     
 132:main.c        ****     /* stop motor as default */
 133:main.c        **** 	UI_Cmd.run =  FALSE;     
 346              		.loc 1 133 0
 347 0038 744B     		ldr	r3, .L22+4
 348 003a 0022     		movs	r2, #0
 349 003c 1A70     		strb	r2, [r3]
 134:main.c        ****     /* Set Motor Direction */
 135:main.c        ****     /* CLOCK_WISE = 0x01, and COUNTER_CLOCK_WISE = 0x00 */  
 136:main.c        ****     CtrlReg_Dir_Write(UI_Data.Dir);
 350              		.loc 1 136 0
 351 003e 744B     		ldr	r3, .L22+8
 352 0040 1B78     		ldrb	r3, [r3]
 353 0042 1800     		movs	r0, r3
 354 0044 FFF7FEFF 		bl	CtrlReg_Dir_Write
 355              	.L21:
 137:main.c        ****     
 138:main.c        ****     for(;;)
 139:main.c        ****     {
 140:main.c        ****         /* Scan sensors and handle event */
 141:main.c        **** 	    ButtonProcess();
 356              		.loc 1 141 0
 357 0048 FFF7FEFF 		bl	ButtonProcess
 142:main.c        **** 		
 143:main.c        ****         /* Measure bus voltage */
 144:main.c        ****         VoltageCheck();	
 358              		.loc 1 144 0
 359 004c FFF7FEFF 		bl	VoltageCheck
 145:main.c        **** 		
 146:main.c        ****         // Si la camara no ha mandado datos en un rato, es mejor parar
 147:main.c        ****         if (numeroDeFallas >= maxNumeroDeFallasAntesDeParar){
 360              		.loc 1 147 0
 361 0050 704B     		ldr	r3, .L22+12
 362 0052 1B78     		ldrb	r3, [r3]
 363 0054 4A2B     		cmp	r3, #74
 364 0056 0ED9     		bls	.L11
 148:main.c        ****             UI_Cmd.run = FALSE;
ARM GAS  C:\Users\ANDRES~1\AppData\Local\Temp\ccu2TWt9.s 			page 10


 365              		.loc 1 148 0
 366 0058 6C4B     		ldr	r3, .L22+4
 367 005a 0022     		movs	r2, #0
 368 005c 1A70     		strb	r2, [r3]
 149:main.c        ****             stateSys = STATUS_STOP;
 369              		.loc 1 149 0
 370 005e 6E4B     		ldr	r3, .L22+16
 371 0060 0222     		movs	r2, #2
 372 0062 1A70     		strb	r2, [r3]
 150:main.c        ****             
 151:main.c        ****             // Calcula la velocidad
 152:main.c        ****             UI_Data.speedRpmRef = (uint16) UINT16_MAX;
 373              		.loc 1 152 0
 374 0064 6A4B     		ldr	r3, .L22+8
 375 0066 0122     		movs	r2, #1
 376 0068 5242     		rsbs	r2, r2, #0
 377 006a 9A80     		strh	r2, [r3, #4]
 153:main.c        ****             speedRef = UINT16_MAX;
 378              		.loc 1 153 0
 379 006c 6B4B     		ldr	r3, .L22+20
 380 006e 0122     		movs	r2, #1
 381 0070 5242     		rsbs	r2, r2, #0
 382 0072 1A80     		strh	r2, [r3]
 383 0074 22E0     		b	.L12
 384              	.L11:
 154:main.c        ****         }else if( stateSys == STATUS_STOP){
 385              		.loc 1 154 0
 386 0076 684B     		ldr	r3, .L22+16
 387 0078 1B78     		ldrb	r3, [r3]
 388 007a 022B     		cmp	r3, #2
 389 007c 1ED1     		bne	.L12
 155:main.c        ****             stateSys = STATUS_RUN;
 390              		.loc 1 155 0
 391 007e 664B     		ldr	r3, .L22+16
 392 0080 0122     		movs	r2, #1
 393 0082 1A70     		strb	r2, [r3]
 156:main.c        ****             UI_Cmd.run = TRUE;
 394              		.loc 1 156 0
 395 0084 614B     		ldr	r3, .L22+4
 396 0086 0122     		movs	r2, #1
 397 0088 1A70     		strb	r2, [r3]
 157:main.c        ****             
 158:main.c        ****             // Calcula la velocidad
 159:main.c        ****             UI_Data.speedRpmRef = (uint16) (MaxRPM * porcentajeRPM);
 398              		.loc 1 159 0
 399 008a 654B     		ldr	r3, .L22+24
 400 008c 1B68     		ldr	r3, [r3]
 401 008e 6549     		ldr	r1, .L22+28
 402 0090 181C     		adds	r0, r3, #0
 403 0092 FFF7FEFF 		bl	__aeabi_fmul
 404 0096 031C     		adds	r3, r0, #0
 405 0098 181C     		adds	r0, r3, #0
 406 009a FFF7FEFF 		bl	__aeabi_f2uiz
 407 009e 0300     		movs	r3, r0
 408 00a0 9AB2     		uxth	r2, r3
 409 00a2 5B4B     		ldr	r3, .L22+8
 410 00a4 9A80     		strh	r2, [r3, #4]
ARM GAS  C:\Users\ANDRES~1\AppData\Local\Temp\ccu2TWt9.s 			page 11


 160:main.c        ****             speedRef = (60*FREQ_CAPTURE_CLK)/(uint32)(MOTOR_POLE_PAIRS*UI_Data.speedRpmRef);
 411              		.loc 1 160 0
 412 00a6 5A4B     		ldr	r3, .L22+8
 413 00a8 9B88     		ldrh	r3, [r3, #4]
 414 00aa 9B00     		lsls	r3, r3, #2
 415 00ac 1900     		movs	r1, r3
 416 00ae 5E48     		ldr	r0, .L22+32
 417 00b0 FFF7FEFF 		bl	__aeabi_uidiv
 418 00b4 0300     		movs	r3, r0
 419 00b6 9AB2     		uxth	r2, r3
 420 00b8 584B     		ldr	r3, .L22+20
 421 00ba 1A80     		strh	r2, [r3]
 422              	.L12:
 161:main.c        ****         }
 162:main.c        ****         
 163:main.c        ****         /*Stop motor by disabling PWM output */
 164:main.c        **** 		if(UI_Cmd.run == FALSE)
 423              		.loc 1 164 0
 424 00bc 534B     		ldr	r3, .L22+4
 425 00be 1B78     		ldrb	r3, [r3]
 426 00c0 002B     		cmp	r3, #0
 427 00c2 14D1     		bne	.L13
 165:main.c        ****         {
 166:main.c        **** 			/* Turning off LED when motor stopping */
 167:main.c        **** 			STATUS_LED_Write(1);			
 428              		.loc 1 167 0
 429 00c4 0120     		movs	r0, #1
 430 00c6 FFF7FEFF 		bl	STATUS_LED_Write
 168:main.c        ****         	CtrlReg_PWMOut_Write(0x00);  
 431              		.loc 1 168 0
 432 00ca 0020     		movs	r0, #0
 433 00cc FFF7FEFF 		bl	CtrlReg_PWMOut_Write
 169:main.c        **** 			PWM_Drive_WriteCompare(PWM_Drive_ReadPeriod()>>16);
 434              		.loc 1 169 0
 435 00d0 FFF7FEFF 		bl	PWM_Drive_ReadPeriod
 436 00d4 0300     		movs	r3, r0
 437 00d6 1B0C     		lsrs	r3, r3, #16
 438 00d8 1800     		movs	r0, r3
 439 00da FFF7FEFF 		bl	PWM_Drive_WriteCompare
 170:main.c        ****             
 171:main.c        ****         	piOut = INIT_PIOUT;
 440              		.loc 1 171 0
 441 00de 534B     		ldr	r3, .L22+36
 442 00e0 A022     		movs	r2, #160
 443 00e2 D202     		lsls	r2, r2, #11
 444 00e4 1A60     		str	r2, [r3]
 172:main.c        ****         	HallReader = TRUE;
 445              		.loc 1 172 0
 446 00e6 0D23     		movs	r3, #13
 447 00e8 FB18     		adds	r3, r7, r3
 448 00ea 0122     		movs	r2, #1
 449 00ec 1A70     		strb	r2, [r3]
 450              	.L13:
 173:main.c        ****         } 
 174:main.c        **** 		
 175:main.c        **** 		/* Error Protection: Disable PWM and shining LED at 1Hz */
 176:main.c        **** 		if(errorState != 0)
ARM GAS  C:\Users\ANDRES~1\AppData\Local\Temp\ccu2TWt9.s 			page 12


 451              		.loc 1 176 0
 452 00ee 504B     		ldr	r3, .L22+40
 453 00f0 1B78     		ldrb	r3, [r3]
 454 00f2 002B     		cmp	r3, #0
 455 00f4 1CD0     		beq	.L14
 177:main.c        **** 		{
 178:main.c        **** 			CtrlReg_PWMOut_Write(0x00);
 456              		.loc 1 178 0
 457 00f6 0020     		movs	r0, #0
 458 00f8 FFF7FEFF 		bl	CtrlReg_PWMOut_Write
 179:main.c        ****             
 180:main.c        **** 			STATUS_LED_Write(~(STATUS_LED_Read()));
 459              		.loc 1 180 0
 460 00fc FFF7FEFF 		bl	STATUS_LED_Read
 461 0100 0300     		movs	r3, r0
 462 0102 DB43     		mvns	r3, r3
 463 0104 DBB2     		uxtb	r3, r3
 464 0106 1800     		movs	r0, r3
 465 0108 FFF7FEFF 		bl	STATUS_LED_Write
 181:main.c        **** 			CyDelay(500);
 466              		.loc 1 181 0
 467 010c FA23     		movs	r3, #250
 468 010e 5B00     		lsls	r3, r3, #1
 469 0110 1800     		movs	r0, r3
 470 0112 FFF7FEFF 		bl	CyDelay
 182:main.c        **** 			STATUS_LED_Write(~(STATUS_LED_Read()));
 471              		.loc 1 182 0
 472 0116 FFF7FEFF 		bl	STATUS_LED_Read
 473 011a 0300     		movs	r3, r0
 474 011c DB43     		mvns	r3, r3
 475 011e DBB2     		uxtb	r3, r3
 476 0120 1800     		movs	r0, r3
 477 0122 FFF7FEFF 		bl	STATUS_LED_Write
 183:main.c        **** 			CyDelay(500);
 478              		.loc 1 183 0
 479 0126 FA23     		movs	r3, #250
 480 0128 5B00     		lsls	r3, r3, #1
 481 012a 1800     		movs	r0, r3
 482 012c FFF7FEFF 		bl	CyDelay
 483              	.L14:
 184:main.c        **** 		}		
 185:main.c        ****         
 186:main.c        **** 		/* Motor Running */
 187:main.c        ****         if(UI_Cmd.run == TRUE && errorState == 0)
 484              		.loc 1 187 0
 485 0130 364B     		ldr	r3, .L22+4
 486 0132 1B78     		ldrb	r3, [r3]
 487 0134 012B     		cmp	r3, #1
 488 0136 87D1     		bne	.L21
 489              		.loc 1 187 0 is_stmt 0 discriminator 1
 490 0138 3D4B     		ldr	r3, .L22+40
 491 013a 1B78     		ldrb	r3, [r3]
 492 013c 002B     		cmp	r3, #0
 493 013e 83D1     		bne	.L21
 188:main.c        ****         {
 189:main.c        **** 			/* Lighting LED when motor running */
 190:main.c        **** 			STATUS_LED_Write(0);
ARM GAS  C:\Users\ANDRES~1\AppData\Local\Temp\ccu2TWt9.s 			page 13


 494              		.loc 1 190 0 is_stmt 1
 495 0140 0020     		movs	r0, #0
 496 0142 FFF7FEFF 		bl	STATUS_LED_Write
 191:main.c        **** 			
 192:main.c        ****             /* only send out UART data when motor is running */
 193:main.c        **** 		    BCPPoll();
 497              		.loc 1 193 0
 498 0146 FFF7FEFF 		bl	BCPPoll
 194:main.c        ****             
 195:main.c        ****             CtrlReg_PWMOut_Write(0x03);  
 499              		.loc 1 195 0
 500 014a 0320     		movs	r0, #3
 501 014c FFF7FEFF 		bl	CtrlReg_PWMOut_Write
 196:main.c        ****             
 197:main.c        ****             pwmCntLocal = pwmCnt;
 502              		.loc 1 197 0
 503 0150 0E23     		movs	r3, #14
 504 0152 FB18     		adds	r3, r7, r3
 505 0154 374A     		ldr	r2, .L22+44
 506 0156 1288     		ldrh	r2, [r2]
 507 0158 1A80     		strh	r2, [r3]
 198:main.c        ****             
 199:main.c        ****             /* Update every 12.5mS*/
 200:main.c        ****            	if((pwmCntLocal & 0xff) == 0xff) 
 508              		.loc 1 200 0
 509 015a 0E23     		movs	r3, #14
 510 015c FB18     		adds	r3, r7, r3
 511 015e 1B88     		ldrh	r3, [r3]
 512 0160 FF22     		movs	r2, #255
 513 0162 1340     		ands	r3, r2
 514 0164 FF2B     		cmp	r3, #255
 515 0166 2CD1     		bne	.L16
 201:main.c        ****     	    {
 202:main.c        **** 				pwmCntLocal++;
 516              		.loc 1 202 0
 517 0168 0E23     		movs	r3, #14
 518 016a FB18     		adds	r3, r7, r3
 519 016c 1A88     		ldrh	r2, [r3]
 520 016e 0E23     		movs	r3, #14
 521 0170 FB18     		adds	r3, r7, r3
 522 0172 0132     		adds	r2, r2, #1
 523 0174 1A80     		strh	r2, [r3]
 203:main.c        ****                 
 204:main.c        ****                 // Check for new data from PiCamera
 205:main.c        ****                 if (isDataAvailable){
 524              		.loc 1 205 0
 525 0176 304B     		ldr	r3, .L22+48
 526 0178 1B78     		ldrb	r3, [r3]
 527 017a 002B     		cmp	r3, #0
 528 017c 05D0     		beq	.L17
 206:main.c        ****                     interpretaDatos();
 529              		.loc 1 206 0
 530 017e FFF7FEFF 		bl	interpretaDatos
 207:main.c        ****                     isDataAvailable=0;
 531              		.loc 1 207 0
 532 0182 2D4B     		ldr	r3, .L22+48
 533 0184 0022     		movs	r2, #0
ARM GAS  C:\Users\ANDRES~1\AppData\Local\Temp\ccu2TWt9.s 			page 14


 534 0186 1A70     		strb	r2, [r3]
 535 0188 05E0     		b	.L18
 536              	.L17:
 208:main.c        ****                 }else{
 209:main.c        ****                     numeroDeFallas++;
 537              		.loc 1 209 0
 538 018a 224B     		ldr	r3, .L22+12
 539 018c 1B78     		ldrb	r3, [r3]
 540 018e 0133     		adds	r3, r3, #1
 541 0190 DAB2     		uxtb	r2, r3
 542 0192 204B     		ldr	r3, .L22+12
 543 0194 1A70     		strb	r2, [r3]
 544              	.L18:
 210:main.c        ****                 }
 211:main.c        ****                 
 212:main.c        ****                 /* Calculate motor speed reference, unit is RPM*/
 213:main.c        **** 				//UI_Data.speedRpmRef = MIN_SPEED_REF_ADC_VALUE + indiceActual; //velocidadesDefinidas[indiceAc
 214:main.c        ****                 //numVecesRepetidas = (numVecesRepetidas + 1)%2;
 215:main.c        ****                 //indiceActual = (indiceActual + numVecesRepetidas/1)%numVelocidades;
 216:main.c        ****     			
 217:main.c        ****                 if(UI_Cmd.run == TRUE)
 545              		.loc 1 217 0
 546 0196 1D4B     		ldr	r3, .L22+4
 547 0198 1B78     		ldrb	r3, [r3]
 548 019a 012B     		cmp	r3, #1
 549 019c 01D1     		bne	.L19
 218:main.c        ****                 {
 219:main.c        ****                 /*Speed close loop control */            
 220:main.c        ****                 	SpeedPID();  
 550              		.loc 1 220 0
 551 019e FFF7FEFF 		bl	SpeedPID
 552              	.L19:
 221:main.c        ****                 }	 
 222:main.c        ****     			
 223:main.c        ****                 /* Hall Error Detection*/
 224:main.c        ****                 HallReader  = Hall_Error_Read();
 553              		.loc 1 224 0
 554 01a2 0D23     		movs	r3, #13
 555 01a4 FC18     		adds	r4, r7, r3
 556 01a6 FFF7FEFF 		bl	Hall_Error_Read
 557 01aa 0300     		movs	r3, r0
 558 01ac 2370     		strb	r3, [r4]
 225:main.c        ****                 if(HallReader == TRUE)
 559              		.loc 1 225 0
 560 01ae 0D23     		movs	r3, #13
 561 01b0 FB18     		adds	r3, r7, r3
 562 01b2 1B78     		ldrb	r3, [r3]
 563 01b4 012B     		cmp	r3, #1
 564 01b6 04D1     		bne	.L16
 226:main.c        ****                 {               
 227:main.c        ****     				errorState = hallError;
 565              		.loc 1 227 0
 566 01b8 1D4B     		ldr	r3, .L22+40
 567 01ba 0222     		movs	r2, #2
 568 01bc 1A70     		strb	r2, [r3]
 228:main.c        ****                 	UpdateStatusError();
 569              		.loc 1 228 0
ARM GAS  C:\Users\ANDRES~1\AppData\Local\Temp\ccu2TWt9.s 			page 15


 570 01be FFF7FEFF 		bl	UpdateStatusError
 571              	.L16:
 229:main.c        ****                 }			
 230:main.c        ****     		}
 231:main.c        ****             /* Calculate the real time motor speed every 2000 PWM period, unit: RPM*/
 232:main.c        ****             if(pwmCntLocal >= 2000) 
 572              		.loc 1 232 0
 573 01c2 0E23     		movs	r3, #14
 574 01c4 FB18     		adds	r3, r7, r3
 575 01c6 1B88     		ldrh	r3, [r3]
 576 01c8 1C4A     		ldr	r2, .L22+52
 577 01ca 9342     		cmp	r3, r2
 578 01cc 15D9     		bls	.L20
 579              	.LBB3:
 233:main.c        ****             {
 234:main.c        ****                 uint32 tmp1 = 0;
 580              		.loc 1 234 0
 581 01ce 0023     		movs	r3, #0
 582 01d0 BB60     		str	r3, [r7, #8]
 235:main.c        ****                 uint32 tmp2 = 0;
 583              		.loc 1 235 0
 584 01d2 0023     		movs	r3, #0
 585 01d4 7B60     		str	r3, [r7, #4]
 236:main.c        **** 				pwmCntLocal = 0;
 586              		.loc 1 236 0
 587 01d6 0E23     		movs	r3, #14
 588 01d8 FB18     		adds	r3, r7, r3
 589 01da 0022     		movs	r2, #0
 590 01dc 1A80     		strh	r2, [r3]
 237:main.c        ****                 tmp1 = (60*FREQ_CAPTURE_CLK);
 591              		.loc 1 237 0
 592 01de 124B     		ldr	r3, .L22+32
 593 01e0 BB60     		str	r3, [r7, #8]
 238:main.c        ****                 tmp2 = (MOTOR_POLE_PAIRS*speedCur);            
 594              		.loc 1 238 0
 595 01e2 174B     		ldr	r3, .L22+56
 596 01e4 1B88     		ldrh	r3, [r3]
 597 01e6 9B00     		lsls	r3, r3, #2
 598 01e8 7B60     		str	r3, [r7, #4]
 239:main.c        ****                 UI_Data.speedRpm = (tmp1/tmp2);      
 599              		.loc 1 239 0
 600 01ea 7968     		ldr	r1, [r7, #4]
 601 01ec B868     		ldr	r0, [r7, #8]
 602 01ee FFF7FEFF 		bl	__aeabi_uidiv
 603 01f2 0300     		movs	r3, r0
 604 01f4 9AB2     		uxth	r2, r3
 605 01f6 064B     		ldr	r3, .L22+8
 606 01f8 5A80     		strh	r2, [r3, #2]
 607              	.L20:
 608              	.LBE3:
 240:main.c        ****             }
 241:main.c        ****             
 242:main.c        ****             pwmCnt = pwmCntLocal;
 609              		.loc 1 242 0
 610 01fa 0E4B     		ldr	r3, .L22+44
 611 01fc 0E22     		movs	r2, #14
 612 01fe BA18     		adds	r2, r7, r2
ARM GAS  C:\Users\ANDRES~1\AppData\Local\Temp\ccu2TWt9.s 			page 16


 613 0200 1288     		ldrh	r2, [r2]
 614 0202 1A80     		strh	r2, [r3]
 243:main.c        ****         }	
 244:main.c        ****     }
 615              		.loc 1 244 0
 616 0204 20E7     		b	.L21
 617              	.L23:
 618 0206 C046     		.align	2
 619              	.L22:
 620 0208 00000000 		.word	IRSHandler
 621 020c 00000000 		.word	UI_Cmd
 622 0210 00000000 		.word	UI_Data
 623 0214 00000000 		.word	numeroDeFallas
 624 0218 00000000 		.word	stateSys
 625 021c 00000000 		.word	speedRef
 626 0220 00000000 		.word	porcentajeRPM
 627 0224 00009644 		.word	1150681088
 628 0228 808D5B00 		.word	6000000
 629 022c 00000000 		.word	piOut
 630 0230 00000000 		.word	errorState
 631 0234 00000000 		.word	pwmCnt
 632 0238 00000000 		.word	isDataAvailable
 633 023c CF070000 		.word	1999
 634 0240 00000000 		.word	speedCur
 635              		.cfi_endproc
 636              	.LFE34:
 637              		.size	main, .-main
 638              		.text
 639              	.Letext0:
 640              		.file 2 "Generated_Source\\PSoC4/cytypes.h"
 641              		.file 3 "motor.h"
 642              		.file 4 "userinterface.h"
 643              		.file 5 "speed.h"