ARM GAS  C:\Users\ANDRES~1\AppData\Local\Temp\ccMjcGsj.s 			page 1


   1              		.syntax unified
   2              		.cpu cortex-m0
   3              		.fpu softvfp
   4              		.eabi_attribute 20, 1
   5              		.eabi_attribute 21, 1
   6              		.eabi_attribute 23, 3
   7              		.eabi_attribute 24, 1
   8              		.eabi_attribute 25, 1
   9              		.eabi_attribute 26, 1
  10              		.eabi_attribute 30, 6
  11              		.eabi_attribute 34, 0
  12              		.eabi_attribute 18, 4
  13              		.thumb
  14              		.syntax unified
  15              		.file	"motor.c"
  16              		.text
  17              	.Ltext0:
  18              		.cfi_sections	.debug_frame
  19              		.comm	UI_Cmd,1,4
  20              		.comm	UI_Data,16,4
  21              		.global	speedRef
  22              		.bss
  23              		.align	1
  24              		.type	speedRef, %object
  25              		.size	speedRef, 2
  26              	speedRef:
  27 0000 0000     		.space	2
  28              		.global	speedCur
  29              		.data
  30              		.align	1
  31              		.type	speedCur, %object
  32              		.size	speedCur, 2
  33              	speedCur:
  34 0000 B80B     		.short	3000
  35              		.global	preSpeedCur
  36              		.bss
  37              		.align	1
  38              		.type	preSpeedCur, %object
  39              		.size	preSpeedCur, 2
  40              	preSpeedCur:
  41 0002 0000     		.space	2
  42              		.global	preCntCaptur
  43              		.data
  44              		.align	1
  45              		.type	preCntCaptur, %object
  46              		.size	preCntCaptur, 2
  47              	preCntCaptur:
  48 0002 3075     		.short	30000
  49              		.global	dutyCycle
  50              		.bss
  51              		.type	dutyCycle, %object
  52              		.size	dutyCycle, 1
  53              	dutyCycle:
  54 0004 00       		.space	1
  55              		.global	pwmCnt
  56 0005 00       		.align	1
  57              		.type	pwmCnt, %object
ARM GAS  C:\Users\ANDRES~1\AppData\Local\Temp\ccMjcGsj.s 			page 2


  58              		.size	pwmCnt, 2
  59              	pwmCnt:
  60 0006 0000     		.space	2
  61              		.global	firstRun
  62              		.data
  63              		.type	firstRun, %object
  64              		.size	firstRun, 1
  65              	firstRun:
  66 0004 01       		.byte	1
  67              		.global	ocBlankCnt
  68              		.bss
  69              		.type	ocBlankCnt, %object
  70              		.size	ocBlankCnt, 1
  71              	ocBlankCnt:
  72 0008 00       		.space	1
  73              		.global	errorState
  74              		.type	errorState, %object
  75              		.size	errorState, 1
  76              	errorState:
  77 0009 00       		.space	1
  78              		.global	stateSys
  79              		.data
  80              		.type	stateSys, %object
  81              		.size	stateSys, 1
  82              	stateSys:
  83 0005 02       		.byte	2
  84              		.section	.text.pwm_isr,"ax",%progbits
  85              		.align	2
  86              		.global	pwm_isr
  87              		.code	16
  88              		.thumb_func
  89              		.type	pwm_isr, %function
  90              	pwm_isr:
  91              	.LFB32:
  92              		.file 1 "motor.c"
   1:motor.c       **** /*******************************************************************************
   2:motor.c       **** * Project Name		: Sensored BLDC Motor Control
   3:motor.c       **** * File Name			: motor.c
   4:motor.c       **** * Version			: 1.0
   5:motor.c       **** * Device Used		: CY8C4245AXI-483     
   6:motor.c       **** * Software Used		: PSoC Creator 4.2
   7:motor.c       **** * Compiler Used		: ARM GCC 5.4.1 
   8:motor.c       **** * Related Hardware  : CY8CKIT-042 PSoC 4 Pioneer Kit + CY8CKIT-037 PSoC 4
   9:motor.c       **** *                     Motor Control Evaluation Kit
  10:motor.c       **** ******************************************************************************
  11:motor.c       **** * Copyright (2018), Cypress Semiconductor Corporation. All rights reserved.
  12:motor.c       **** *******************************************************************************
  13:motor.c       **** * This software, including source code, documentation and related materials
  14:motor.c       **** * (“Software”), is owned by Cypress Semiconductor Corporation or one of its
  15:motor.c       **** * subsidiaries (“Cypress”) and is protected by and subject to worldwide patent
  16:motor.c       **** * protection (United States and foreign), United States copyright laws and
  17:motor.c       **** * international treaty provisions. Therefore, you may use this Software only
  18:motor.c       **** * as provided in the license agreement accompanying the software package from
  19:motor.c       **** * which you obtained this Software (“EULA”).
  20:motor.c       **** *
  21:motor.c       **** * If no EULA applies, Cypress hereby grants you a personal, nonexclusive,
  22:motor.c       **** * non-transferable license to copy, modify, and compile the Software source
ARM GAS  C:\Users\ANDRES~1\AppData\Local\Temp\ccMjcGsj.s 			page 3


  23:motor.c       **** * code solely for use in connection with Cypress’s integrated circuit products.
  24:motor.c       **** * Any reproduction, modification, translation, compilation, or representation
  25:motor.c       **** * of this Software except as specified above is prohibited without the express
  26:motor.c       **** * written permission of Cypress.
  27:motor.c       **** *
  28:motor.c       **** * Disclaimer: THIS SOFTWARE IS PROVIDED AS-IS, WITH NO WARRANTY OF ANY KIND, 
  29:motor.c       **** * EXPRESS OR IMPLIED, INCLUDING, BUT NOT LIMITED TO, NONINFRINGEMENT, IMPLIED 
  30:motor.c       **** * WARRANTIES OF MERCHANTABILITY AND FITNESS FOR A PARTICULAR PURPOSE. Cypress 
  31:motor.c       **** * reserves the right to make changes to the Software without notice. Cypress 
  32:motor.c       **** * does not assume any liability arising out of the application or use of the 
  33:motor.c       **** * Software or any product or circuit described in the Software. Cypress does 
  34:motor.c       **** * not authorize its products for use in any products where a malfunction or 
  35:motor.c       **** * failure of the Cypress product may reasonably be expected to result in 
  36:motor.c       **** * significant property damage, injury or death (“High Risk Product”). By 
  37:motor.c       **** * including Cypress’s product in a High Risk Product, the manufacturer of such 
  38:motor.c       **** * system or application assumes all risk of such use and in doing so agrees to 
  39:motor.c       **** * indemnify Cypress against all liability.
  40:motor.c       **** *******************************************************************************/
  41:motor.c       **** #include <project.h>
  42:motor.c       **** #include "motor.h"
  43:motor.c       **** #include "userinterface.h"
  44:motor.c       **** #include "getvalue.h"
  45:motor.c       **** 
  46:motor.c       **** /* UI_MOTOR_STATUS Status */
  47:motor.c       **** UI_CMD  UI_Cmd;
  48:motor.c       **** UI_DATA UI_Data;
  49:motor.c       **** 
  50:motor.c       **** uint16 speedRef = 0;            /* Motor speed Reference */
  51:motor.c       **** uint16 speedCur = 3000;         /* Current motor speed. */
  52:motor.c       **** 
  53:motor.c       **** uint16 preSpeedCur = 0;
  54:motor.c       **** uint16 preCntCaptur = 30000;
  55:motor.c       **** 
  56:motor.c       **** uint8  dutyCycle = 0;            /* really now used as BYTE since use 8-bit PWM */
  57:motor.c       **** uint16 pwmCnt = 0;
  58:motor.c       **** uint8 firstRun = 1;
  59:motor.c       **** uint8 ocBlankCnt = 0;
  60:motor.c       **** Error_T errorState = no_error;
  61:motor.c       **** uint8 stateSys = STATUS_STOP;
  62:motor.c       **** 
  63:motor.c       **** /*******************************************************************************
  64:motor.c       **** * Function Name: pwm_isr
  65:motor.c       **** ********************************************************************************
  66:motor.c       **** *
  67:motor.c       **** * Summary:
  68:motor.c       **** * This function is PWM ISR. When TC happens, it increases PWM ticker, clears flag and 
  69:motor.c       **** * enables over current protection ISR after startup.
  70:motor.c       **** *
  71:motor.c       **** * Parameters: None
  72:motor.c       **** *
  73:motor.c       **** * Return: None
  74:motor.c       **** *
  75:motor.c       **** *******************************************************************************/
  76:motor.c       **** CY_ISR(pwm_isr)
  77:motor.c       **** {	
  93              		.loc 1 77 0
  94              		.cfi_startproc
ARM GAS  C:\Users\ANDRES~1\AppData\Local\Temp\ccMjcGsj.s 			page 4


  95              		@ args = 0, pretend = 0, frame = 0
  96              		@ frame_needed = 1, uses_anonymous_args = 0
  97 0000 80B5     		push	{r7, lr}
  98              		.cfi_def_cfa_offset 8
  99              		.cfi_offset 7, -8
 100              		.cfi_offset 14, -4
 101 0002 00AF     		add	r7, sp, #0
 102              		.cfi_def_cfa_register 7
  78:motor.c       **** 	pwmCnt++;  
 103              		.loc 1 78 0
 104 0004 184B     		ldr	r3, .L5
 105 0006 1B88     		ldrh	r3, [r3]
 106 0008 0133     		adds	r3, r3, #1
 107 000a 9AB2     		uxth	r2, r3
 108 000c 164B     		ldr	r3, .L5
 109 000e 1A80     		strh	r2, [r3]
  79:motor.c       **** 	
  80:motor.c       ****     /* Avoid the current pulse interference in motor start-up*/
  81:motor.c       ****     if (UI_Cmd.run)
 110              		.loc 1 81 0
 111 0010 164B     		ldr	r3, .L5+4
 112 0012 1B78     		ldrb	r3, [r3]
 113 0014 002B     		cmp	r3, #0
 114 0016 17D0     		beq	.L2
  82:motor.c       ****     {
  83:motor.c       ****         if(firstRun == 1)
 115              		.loc 1 83 0
 116 0018 154B     		ldr	r3, .L5+8
 117 001a 1B78     		ldrb	r3, [r3]
 118 001c 012B     		cmp	r3, #1
 119 001e 05D1     		bne	.L3
  84:motor.c       ****         {
  85:motor.c       ****             ocBlankCnt++;
 120              		.loc 1 85 0
 121 0020 144B     		ldr	r3, .L5+12
 122 0022 1B78     		ldrb	r3, [r3]
 123 0024 0133     		adds	r3, r3, #1
 124 0026 DAB2     		uxtb	r2, r3
 125 0028 124B     		ldr	r3, .L5+12
 126 002a 1A70     		strb	r2, [r3]
 127              	.L3:
  86:motor.c       ****         }
  87:motor.c       ****         if (ocBlankCnt > 2)    /*Ignore the first 2 PWM period = 50uS*3=150uS, then enable over cur
 128              		.loc 1 87 0
 129 002c 114B     		ldr	r3, .L5+12
 130 002e 1B78     		ldrb	r3, [r3]
 131 0030 022B     		cmp	r3, #2
 132 0032 09D9     		bls	.L2
  88:motor.c       ****         {
  89:motor.c       ****             firstRun = 0;
 133              		.loc 1 89 0
 134 0034 0E4B     		ldr	r3, .L5+8
 135 0036 0022     		movs	r2, #0
 136 0038 1A70     		strb	r2, [r3]
  90:motor.c       ****             ocBlankCnt = 0;
 137              		.loc 1 90 0
 138 003a 0E4B     		ldr	r3, .L5+12
ARM GAS  C:\Users\ANDRES~1\AppData\Local\Temp\ccMjcGsj.s 			page 5


 139 003c 0022     		movs	r2, #0
 140 003e 1A70     		strb	r2, [r3]
  91:motor.c       ****             isr_oc_Enable();
 141              		.loc 1 91 0
 142 0040 FFF7FEFF 		bl	isr_oc_Enable
  92:motor.c       ****             isr_oc_ClearPending();
 143              		.loc 1 92 0
 144 0044 FFF7FEFF 		bl	isr_oc_ClearPending
 145              	.L2:
  93:motor.c       ****         }
  94:motor.c       ****     }
  95:motor.c       **** 	
  96:motor.c       **** 	/* Calculate the real time motor speed every 2000 PWM period*/
  97:motor.c       **** 	if(pwmCnt >= 2001)
 146              		.loc 1 97 0
 147 0048 074B     		ldr	r3, .L5
 148 004a 1A88     		ldrh	r2, [r3]
 149 004c FA23     		movs	r3, #250
 150 004e DB00     		lsls	r3, r3, #3
 151 0050 9A42     		cmp	r2, r3
 152 0052 02D9     		bls	.L4
  98:motor.c       **** 	{
  99:motor.c       **** 		pwmCnt = 0;
 153              		.loc 1 99 0
 154 0054 044B     		ldr	r3, .L5
 155 0056 0022     		movs	r2, #0
 156 0058 1A80     		strh	r2, [r3]
 157              	.L4:
 100:motor.c       **** 	}
 101:motor.c       **** 
 102:motor.c       **** 	PWM_Drive_ClearInterrupt(PWM_Drive_INTR_MASK_TC);
 158              		.loc 1 102 0
 159 005a 0120     		movs	r0, #1
 160 005c FFF7FEFF 		bl	PWM_Drive_ClearInterrupt
 103:motor.c       **** }
 161              		.loc 1 103 0
 162 0060 C046     		nop
 163 0062 BD46     		mov	sp, r7
 164              		@ sp needed
 165 0064 80BD     		pop	{r7, pc}
 166              	.L6:
 167 0066 C046     		.align	2
 168              	.L5:
 169 0068 00000000 		.word	pwmCnt
 170 006c 00000000 		.word	UI_Cmd
 171 0070 00000000 		.word	firstRun
 172 0074 00000000 		.word	ocBlankCnt
 173              		.cfi_endproc
 174              	.LFE32:
 175              		.size	pwm_isr, .-pwm_isr
 176              		.section	.text.speed_measure_isr,"ax",%progbits
 177              		.align	2
 178              		.global	speed_measure_isr
 179              		.code	16
 180              		.thumb_func
 181              		.type	speed_measure_isr, %function
 182              	speed_measure_isr:
ARM GAS  C:\Users\ANDRES~1\AppData\Local\Temp\ccMjcGsj.s 			page 6


 183              	.LFB33:
 104:motor.c       **** 
 105:motor.c       **** /*******************************************************************************
 106:motor.c       **** * Function Name: speed_measure_isr
 107:motor.c       **** ********************************************************************************
 108:motor.c       **** *
 109:motor.c       **** * Summary:
 110:motor.c       **** * This function is ISR for motor speed measurement. 
 111:motor.c       **** * 
 112:motor.c       **** * Parameters: None
 113:motor.c       **** *
 114:motor.c       **** * Return: None
 115:motor.c       **** *
 116:motor.c       **** *******************************************************************************/
 117:motor.c       **** CY_ISR(speed_measure_isr)
 118:motor.c       **** {
 184              		.loc 1 118 0
 185              		.cfi_startproc
 186              		@ args = 0, pretend = 0, frame = 8
 187              		@ frame_needed = 1, uses_anonymous_args = 0
 188 0000 80B5     		push	{r7, lr}
 189              		.cfi_def_cfa_offset 8
 190              		.cfi_offset 7, -8
 191              		.cfi_offset 14, -4
 192 0002 82B0     		sub	sp, sp, #8
 193              		.cfi_def_cfa_offset 16
 194 0004 00AF     		add	r7, sp, #0
 195              		.cfi_def_cfa_register 7
 119:motor.c       ****     uint16 cntCaptur = 0;
 196              		.loc 1 119 0
 197 0006 BB1D     		adds	r3, r7, #6
 198 0008 0022     		movs	r2, #0
 199 000a 1A80     		strh	r2, [r3]
 120:motor.c       ****     
 121:motor.c       ****     cntCaptur = Counter_Spd_ReadCapture();
 200              		.loc 1 121 0
 201 000c FFF7FEFF 		bl	Counter_Spd_ReadCapture
 202 0010 0200     		movs	r2, r0
 203 0012 BB1D     		adds	r3, r7, #6
 204 0014 1A80     		strh	r2, [r3]
 122:motor.c       **** 	
 123:motor.c       **** 	speedCur = preCntCaptur - cntCaptur;
 205              		.loc 1 123 0
 206 0016 184B     		ldr	r3, .L9
 207 0018 1A88     		ldrh	r2, [r3]
 208 001a BB1D     		adds	r3, r7, #6
 209 001c 1B88     		ldrh	r3, [r3]
 210 001e D31A     		subs	r3, r2, r3
 211 0020 9AB2     		uxth	r2, r3
 212 0022 164B     		ldr	r3, .L9+4
 213 0024 1A80     		strh	r2, [r3]
 124:motor.c       **** 	
 125:motor.c       **** 	/* If speed is too low, Regard motor is stopped*/
 126:motor.c       ****      if(speedCur > 5000)		/* < 300Rpm*/
 214              		.loc 1 126 0
 215 0026 154B     		ldr	r3, .L9+4
 216 0028 1B88     		ldrh	r3, [r3]
ARM GAS  C:\Users\ANDRES~1\AppData\Local\Temp\ccMjcGsj.s 			page 7


 217 002a 154A     		ldr	r2, .L9+8
 218 002c 9342     		cmp	r3, r2
 219 002e 02D9     		bls	.L8
 127:motor.c       **** 		speedCur = 5000; 
 220              		.loc 1 127 0
 221 0030 124B     		ldr	r3, .L9+4
 222 0032 134A     		ldr	r2, .L9+8
 223 0034 1A80     		strh	r2, [r3]
 224              	.L8:
 128:motor.c       **** 	
 129:motor.c       ****     /* filter for speed measured */
 130:motor.c       ****     speedCur = (preSpeedCur >> 2) + (preSpeedCur >> 1) + (speedCur >> 2);	
 225              		.loc 1 130 0
 226 0036 134B     		ldr	r3, .L9+12
 227 0038 1B88     		ldrh	r3, [r3]
 228 003a 9B08     		lsrs	r3, r3, #2
 229 003c 9AB2     		uxth	r2, r3
 230 003e 114B     		ldr	r3, .L9+12
 231 0040 1B88     		ldrh	r3, [r3]
 232 0042 5B08     		lsrs	r3, r3, #1
 233 0044 9BB2     		uxth	r3, r3
 234 0046 D318     		adds	r3, r2, r3
 235 0048 9AB2     		uxth	r2, r3
 236 004a 0C4B     		ldr	r3, .L9+4
 237 004c 1B88     		ldrh	r3, [r3]
 238 004e 9B08     		lsrs	r3, r3, #2
 239 0050 9BB2     		uxth	r3, r3
 240 0052 D318     		adds	r3, r2, r3
 241 0054 9AB2     		uxth	r2, r3
 242 0056 094B     		ldr	r3, .L9+4
 243 0058 1A80     		strh	r2, [r3]
 131:motor.c       **** 	
 132:motor.c       ****     preCntCaptur = cntCaptur;
 244              		.loc 1 132 0
 245 005a 074B     		ldr	r3, .L9
 246 005c BA1D     		adds	r2, r7, #6
 247 005e 1288     		ldrh	r2, [r2]
 248 0060 1A80     		strh	r2, [r3]
 133:motor.c       **** 	preSpeedCur = speedCur; 
 249              		.loc 1 133 0
 250 0062 064B     		ldr	r3, .L9+4
 251 0064 1A88     		ldrh	r2, [r3]
 252 0066 074B     		ldr	r3, .L9+12
 253 0068 1A80     		strh	r2, [r3]
 134:motor.c       **** 	
 135:motor.c       **** 	Counter_Spd_ClearInterrupt(Counter_Spd_INTR_MASK_CC_MATCH);
 254              		.loc 1 135 0
 255 006a 0220     		movs	r0, #2
 256 006c FFF7FEFF 		bl	Counter_Spd_ClearInterrupt
 136:motor.c       **** }
 257              		.loc 1 136 0
 258 0070 C046     		nop
 259 0072 BD46     		mov	sp, r7
 260 0074 02B0     		add	sp, sp, #8
 261              		@ sp needed
 262 0076 80BD     		pop	{r7, pc}
 263              	.L10:
ARM GAS  C:\Users\ANDRES~1\AppData\Local\Temp\ccMjcGsj.s 			page 8


 264              		.align	2
 265              	.L9:
 266 0078 00000000 		.word	preCntCaptur
 267 007c 00000000 		.word	speedCur
 268 0080 88130000 		.word	5000
 269 0084 00000000 		.word	preSpeedCur
 270              		.cfi_endproc
 271              	.LFE33:
 272              		.size	speed_measure_isr, .-speed_measure_isr
 273              		.section	.text.over_current_isr,"ax",%progbits
 274              		.align	2
 275              		.global	over_current_isr
 276              		.code	16
 277              		.thumb_func
 278              		.type	over_current_isr, %function
 279              	over_current_isr:
 280              	.LFB34:
 137:motor.c       **** 
 138:motor.c       **** /*******************************************************************************
 139:motor.c       **** * Function Name: over_current_isr
 140:motor.c       **** ********************************************************************************
 141:motor.c       **** *
 142:motor.c       **** * Summary:
 143:motor.c       **** * This function is ISR for over current protection. It updates the error state flag. 
 144:motor.c       **** * 
 145:motor.c       **** * Parameters: None
 146:motor.c       **** *
 147:motor.c       **** * Return: None
 148:motor.c       **** *
 149:motor.c       **** *******************************************************************************/
 150:motor.c       **** CY_ISR(over_current_isr)
 151:motor.c       **** {	
 281              		.loc 1 151 0
 282              		.cfi_startproc
 283              		@ args = 0, pretend = 0, frame = 0
 284              		@ frame_needed = 1, uses_anonymous_args = 0
 285 0000 80B5     		push	{r7, lr}
 286              		.cfi_def_cfa_offset 8
 287              		.cfi_offset 7, -8
 288              		.cfi_offset 14, -4
 289 0002 00AF     		add	r7, sp, #0
 290              		.cfi_def_cfa_register 7
 152:motor.c       ****     UpdateStatusError();		/* If over current happens, stop motor*/
 291              		.loc 1 152 0
 292 0004 FFF7FEFF 		bl	UpdateStatusError
 153:motor.c       ****     errorState = overCur;
 293              		.loc 1 153 0
 294 0008 044B     		ldr	r3, .L12
 295 000a 0122     		movs	r2, #1
 296 000c 1A70     		strb	r2, [r3]
 154:motor.c       ****     LPComp_OC_ClearInterrupt(LPComp_OC_INTR_RISING);
 297              		.loc 1 154 0
 298 000e 0120     		movs	r0, #1
 299 0010 FFF7FEFF 		bl	LPComp_OC_ClearInterrupt
 155:motor.c       **** }
 300              		.loc 1 155 0
 301 0014 C046     		nop
ARM GAS  C:\Users\ANDRES~1\AppData\Local\Temp\ccMjcGsj.s 			page 9


 302 0016 BD46     		mov	sp, r7
 303              		@ sp needed
 304 0018 80BD     		pop	{r7, pc}
 305              	.L13:
 306 001a C046     		.align	2
 307              	.L12:
 308 001c 00000000 		.word	errorState
 309              		.cfi_endproc
 310              	.LFE34:
 311              		.size	over_current_isr, .-over_current_isr
 312              		.global	__aeabi_f2d
 313              		.global	__aeabi_dmul
 314              		.global	__aeabi_d2f
 315              		.global	__aeabi_fmul
 316              		.global	__aeabi_f2uiz
 317              		.section	.text.Init_UI_FW,"ax",%progbits
 318              		.align	2
 319              		.global	Init_UI_FW
 320              		.code	16
 321              		.thumb_func
 322              		.type	Init_UI_FW, %function
 323              	Init_UI_FW:
 324              	.LFB35:
 156:motor.c       **** 
 157:motor.c       **** /*******************************************************************************
 158:motor.c       **** * Function Name: Init_UI_FW
 159:motor.c       **** ********************************************************************************
 160:motor.c       **** * Summary: This function initializes parameters used in motor running.
 161:motor.c       **** *  
 162:motor.c       **** * Parameters: None  
 163:motor.c       **** *
 164:motor.c       **** * Return: None
 165:motor.c       **** *  
 166:motor.c       **** *******************************************************************************/
 167:motor.c       **** 
 168:motor.c       **** void Init_UI_FW(void)
 169:motor.c       **** {
 325              		.loc 1 169 0
 326              		.cfi_startproc
 327              		@ args = 0, pretend = 0, frame = 8
 328              		@ frame_needed = 1, uses_anonymous_args = 0
 329 0000 90B5     		push	{r4, r7, lr}
 330              		.cfi_def_cfa_offset 12
 331              		.cfi_offset 4, -12
 332              		.cfi_offset 7, -8
 333              		.cfi_offset 14, -4
 334 0002 83B0     		sub	sp, sp, #12
 335              		.cfi_def_cfa_offset 24
 336 0004 00AF     		add	r7, sp, #0
 337              		.cfi_def_cfa_register 7
 170:motor.c       ****     /* Setting UI Initial parameter*/
 171:motor.c       **** 	UI_Data.Dir = 0;                        // 0 giro manecillas | 1 giro en contra manecillas
 338              		.loc 1 171 0
 339 0006 204B     		ldr	r3, .L15
 340 0008 0022     		movs	r2, #0
 341 000a 1A70     		strb	r2, [r3]
 172:motor.c       ****     float rpmScaleMax = 0.4;                // Escala del rpm maximo (4000)
ARM GAS  C:\Users\ANDRES~1\AppData\Local\Temp\ccMjcGsj.s 			page 10


 342              		.loc 1 172 0
 343 000c 1F4B     		ldr	r3, .L15+4
 344 000e 7B60     		str	r3, [r7, #4]
 173:motor.c       ****     float rpmScaleMin = rpmScaleMax * 0.1;
 345              		.loc 1 173 0
 346 0010 7868     		ldr	r0, [r7, #4]
 347 0012 FFF7FEFF 		bl	__aeabi_f2d
 348 0016 1E4A     		ldr	r2, .L15+8
 349 0018 1E4B     		ldr	r3, .L15+12
 350 001a FFF7FEFF 		bl	__aeabi_dmul
 351 001e 0300     		movs	r3, r0
 352 0020 0C00     		movs	r4, r1
 353 0022 1800     		movs	r0, r3
 354 0024 2100     		movs	r1, r4
 355 0026 FFF7FEFF 		bl	__aeabi_d2f
 356 002a 031C     		adds	r3, r0, #0
 357 002c 3B60     		str	r3, [r7]
 174:motor.c       ****     UI_Data.maxSpeedRpm = 4000*rpmScaleMax;
 358              		.loc 1 174 0
 359 002e 1A49     		ldr	r1, .L15+16
 360 0030 7868     		ldr	r0, [r7, #4]
 361 0032 FFF7FEFF 		bl	__aeabi_fmul
 362 0036 031C     		adds	r3, r0, #0
 363 0038 181C     		adds	r0, r3, #0
 364 003a FFF7FEFF 		bl	__aeabi_f2uiz
 365 003e 0300     		movs	r3, r0
 366 0040 9AB2     		uxth	r2, r3
 367 0042 114B     		ldr	r3, .L15
 368 0044 5A81     		strh	r2, [r3, #10]
 175:motor.c       ****     UI_Data.minSpeedRpm = 4000*rpmScaleMin; // Era un valor de 500
 369              		.loc 1 175 0
 370 0046 1449     		ldr	r1, .L15+16
 371 0048 3868     		ldr	r0, [r7]
 372 004a FFF7FEFF 		bl	__aeabi_fmul
 373 004e 031C     		adds	r3, r0, #0
 374 0050 181C     		adds	r0, r3, #0
 375 0052 FFF7FEFF 		bl	__aeabi_f2uiz
 376 0056 0300     		movs	r3, r0
 377 0058 9AB2     		uxth	r2, r3
 378 005a 0B4B     		ldr	r3, .L15
 379 005c 9A81     		strh	r2, [r3, #12]
 176:motor.c       ****     UI_Data.speedRpmRef = 1000;
 380              		.loc 1 176 0
 381 005e 0A4B     		ldr	r3, .L15
 382 0060 FA22     		movs	r2, #250
 383 0062 9200     		lsls	r2, r2, #2
 384 0064 9A80     		strh	r2, [r3, #4]
 177:motor.c       ****     UI_Data.polePairs = 4;
 385              		.loc 1 177 0
 386 0066 084B     		ldr	r3, .L15
 387 0068 0422     		movs	r2, #4
 388 006a 9A73     		strb	r2, [r3, #14]
 178:motor.c       ****     UI_Data.maxCurr = MAX_CURR_MEDIUM; 
 389              		.loc 1 178 0
 390 006c 064B     		ldr	r3, .L15
 391 006e 4B22     		movs	r2, #75
 392 0070 DA73     		strb	r2, [r3, #15]
ARM GAS  C:\Users\ANDRES~1\AppData\Local\Temp\ccMjcGsj.s 			page 11


 179:motor.c       ****     UI_Data.kp = 500;
 393              		.loc 1 179 0
 394 0072 054B     		ldr	r3, .L15
 395 0074 FA22     		movs	r2, #250
 396 0076 5200     		lsls	r2, r2, #1
 397 0078 DA80     		strh	r2, [r3, #6]
 180:motor.c       ****     UI_Data.ki = 50;
 398              		.loc 1 180 0
 399 007a 034B     		ldr	r3, .L15
 400 007c 3222     		movs	r2, #50
 401 007e 1A81     		strh	r2, [r3, #8]
 181:motor.c       **** 	
 182:motor.c       **** }
 402              		.loc 1 182 0
 403 0080 C046     		nop
 404 0082 BD46     		mov	sp, r7
 405 0084 03B0     		add	sp, sp, #12
 406              		@ sp needed
 407 0086 90BD     		pop	{r4, r7, pc}
 408              	.L16:
 409              		.align	2
 410              	.L15:
 411 0088 00000000 		.word	UI_Data
 412 008c CDCCCC3E 		.word	1053609165
 413 0090 9A999999 		.word	-1717986918
 414 0094 9999B93F 		.word	1069128089
 415 0098 00007A45 		.word	1165623296
 416              		.cfi_endproc
 417              	.LFE35:
 418              		.size	Init_UI_FW, .-Init_UI_FW
 419              		.section	.text.Init_HW,"ax",%progbits
 420              		.align	2
 421              		.global	Init_HW
 422              		.code	16
 423              		.thumb_func
 424              		.type	Init_HW, %function
 425              	Init_HW:
 426              	.LFB36:
 183:motor.c       **** 
 184:motor.c       **** 
 185:motor.c       **** /*******************************************************************************
 186:motor.c       **** * Function Name: Init_HW
 187:motor.c       **** ********************************************************************************
 188:motor.c       **** * Summary: This function initializes system hardware peripherals 
 189:motor.c       **** *  
 190:motor.c       **** * Parameters: None  
 191:motor.c       **** *
 192:motor.c       **** * Return: None
 193:motor.c       **** *  
 194:motor.c       **** *******************************************************************************/
 195:motor.c       **** 
 196:motor.c       **** void Init_HW(void)
 197:motor.c       **** {
 427              		.loc 1 197 0
 428              		.cfi_startproc
 429              		@ args = 0, pretend = 0, frame = 0
 430              		@ frame_needed = 1, uses_anonymous_args = 0
ARM GAS  C:\Users\ANDRES~1\AppData\Local\Temp\ccMjcGsj.s 			page 12


 431 0000 80B5     		push	{r7, lr}
 432              		.cfi_def_cfa_offset 8
 433              		.cfi_offset 7, -8
 434              		.cfi_offset 14, -4
 435 0002 00AF     		add	r7, sp, #0
 436              		.cfi_def_cfa_register 7
 198:motor.c       ****     /*PWM Initialization*/
 199:motor.c       **** 	PWM_Drive_Start();
 437              		.loc 1 199 0
 438 0004 FFF7FEFF 		bl	PWM_Drive_Start
 200:motor.c       ****     /*Enable PWM, disable PWM IO output*/
 201:motor.c       ****     CtrlReg_PWMOut_Write(0x01);       
 439              		.loc 1 201 0
 440 0008 0120     		movs	r0, #1
 441 000a FFF7FEFF 		bl	CtrlReg_PWMOut_Write
 202:motor.c       ****    
 203:motor.c       **** 	/*Speed Counter Initialization*/
 204:motor.c       **** 	Counter_Spd_Start();
 442              		.loc 1 204 0
 443 000e FFF7FEFF 		bl	Counter_Spd_Start
 205:motor.c       **** 	
 206:motor.c       ****     /*For voltage sample*/
 207:motor.c       **** 	ADC_SAR_Seq_1_Start();
 444              		.loc 1 207 0
 445 0012 FFF7FEFF 		bl	ADC_SAR_Seq_1_Start
 208:motor.c       ****     
 209:motor.c       ****     /*For over current protection*/
 210:motor.c       **** 	IDAC_Iref_Start();
 446              		.loc 1 210 0
 447 0016 FFF7FEFF 		bl	IDAC_Iref_Start
 211:motor.c       ****     IDAC_Iref_SetValue(0x7d);
 448              		.loc 1 211 0
 449 001a 7D20     		movs	r0, #125
 450 001c FFF7FEFF 		bl	IDAC_Iref_SetValue
 212:motor.c       ****     
 213:motor.c       ****     LPComp_OC_Start();
 451              		.loc 1 213 0
 452 0020 FFF7FEFF 		bl	LPComp_OC_Start
 214:motor.c       **** 	
 215:motor.c       ****     /*UART Init*/
 216:motor.c       ****     UART_BCP_Start();
 453              		.loc 1 216 0
 454 0024 FFF7FEFF 		bl	UART_BCP_Start
 217:motor.c       **** 
 218:motor.c       **** 	isr_pwm_Start();
 455              		.loc 1 218 0
 456 0028 FFF7FEFF 		bl	isr_pwm_Start
 219:motor.c       **** 	isr_pwm_StartEx(pwm_isr);
 457              		.loc 1 219 0
 458 002c 0C4B     		ldr	r3, .L18
 459 002e 1800     		movs	r0, r3
 460 0030 FFF7FEFF 		bl	isr_pwm_StartEx
 220:motor.c       **** 	isr_pwm_Enable();  
 461              		.loc 1 220 0
 462 0034 FFF7FEFF 		bl	isr_pwm_Enable
 221:motor.c       **** 	
 222:motor.c       **** 	isr_spd_Start(); 
ARM GAS  C:\Users\ANDRES~1\AppData\Local\Temp\ccMjcGsj.s 			page 13


 463              		.loc 1 222 0
 464 0038 FFF7FEFF 		bl	isr_spd_Start
 223:motor.c       **** 	isr_spd_StartEx(speed_measure_isr);    
 465              		.loc 1 223 0
 466 003c 094B     		ldr	r3, .L18+4
 467 003e 1800     		movs	r0, r3
 468 0040 FFF7FEFF 		bl	isr_spd_StartEx
 224:motor.c       **** 	isr_spd_Enable(); 	
 469              		.loc 1 224 0
 470 0044 FFF7FEFF 		bl	isr_spd_Enable
 225:motor.c       ****     
 226:motor.c       **** 	isr_oc_Start(); 
 471              		.loc 1 226 0
 472 0048 FFF7FEFF 		bl	isr_oc_Start
 227:motor.c       **** 	isr_oc_StartEx(over_current_isr);    
 473              		.loc 1 227 0
 474 004c 064B     		ldr	r3, .L18+8
 475 004e 1800     		movs	r0, r3
 476 0050 FFF7FEFF 		bl	isr_oc_StartEx
 228:motor.c       **** 	isr_oc_Disable();  
 477              		.loc 1 228 0
 478 0054 FFF7FEFF 		bl	isr_oc_Disable
 229:motor.c       **** }
 479              		.loc 1 229 0
 480 0058 C046     		nop
 481 005a BD46     		mov	sp, r7
 482              		@ sp needed
 483 005c 80BD     		pop	{r7, pc}
 484              	.L19:
 485 005e C046     		.align	2
 486              	.L18:
 487 0060 00000000 		.word	pwm_isr
 488 0064 00000000 		.word	speed_measure_isr
 489 0068 00000000 		.word	over_current_isr
 490              		.cfi_endproc
 491              	.LFE36:
 492              		.size	Init_HW, .-Init_HW
 493              		.section	.text.Init_UI_HW,"ax",%progbits
 494              		.align	2
 495              		.global	Init_UI_HW
 496              		.code	16
 497              		.thumb_func
 498              		.type	Init_UI_HW, %function
 499              	Init_UI_HW:
 500              	.LFB37:
 230:motor.c       **** 
 231:motor.c       **** /*******************************************************************************
 232:motor.c       **** * Function Name: Init_UI_HW
 233:motor.c       **** ********************************************************************************
 234:motor.c       **** * Summary: This function initializes hardware peripherals for user interface
 235:motor.c       **** *  
 236:motor.c       **** * Parameters: None  
 237:motor.c       **** *
 238:motor.c       **** * Return: None
 239:motor.c       **** *  
 240:motor.c       **** *******************************************************************************/
 241:motor.c       **** void Init_UI_HW()
ARM GAS  C:\Users\ANDRES~1\AppData\Local\Temp\ccMjcGsj.s 			page 14


 242:motor.c       **** {
 501              		.loc 1 242 0
 502              		.cfi_startproc
 503              		@ args = 0, pretend = 0, frame = 0
 504              		@ frame_needed = 1, uses_anonymous_args = 0
 505 0000 80B5     		push	{r7, lr}
 506              		.cfi_def_cfa_offset 8
 507              		.cfi_offset 7, -8
 508              		.cfi_offset 14, -4
 509 0002 00AF     		add	r7, sp, #0
 510              		.cfi_def_cfa_register 7
 243:motor.c       **** 	UpdateStatusInit();
 511              		.loc 1 243 0
 512 0004 FFF7FEFF 		bl	UpdateStatusInit
 244:motor.c       **** }
 513              		.loc 1 244 0
 514 0008 C046     		nop
 515 000a BD46     		mov	sp, r7
 516              		@ sp needed
 517 000c 80BD     		pop	{r7, pc}
 518              		.cfi_endproc
 519              	.LFE37:
 520              		.size	Init_UI_HW, .-Init_UI_HW
 521 000e C046     		.text
 522              	.Letext0:
 523              		.file 2 "Generated_Source\\PSoC4/cytypes.h"
 524              		.file 3 "motor.h"