ARM GAS  C:\Users\ANDRES~1\AppData\Local\Temp\ccmr0GAP.s 			page 1


   1              		.syntax unified
   2              		.cpu cortex-m0
   3              		.fpu softvfp
   4              		.eabi_attribute 20, 1
   5              		.eabi_attribute 21, 1
   6              		.eabi_attribute 23, 3
   7              		.eabi_attribute 24, 1
   8              		.eabi_attribute 25, 1
   9              		.eabi_attribute 26, 1
  10              		.eabi_attribute 30, 6
  11              		.eabi_attribute 34, 0
  12              		.eabi_attribute 18, 4
  13              		.thumb
  14              		.syntax unified
  15              		.file	"UART_Pi_UART.c"
  16              		.text
  17              	.Ltext0:
  18              		.cfi_sections	.debug_frame
  19              		.section	.text.UART_Pi_UartInit,"ax",%progbits
  20              		.align	2
  21              		.global	UART_Pi_UartInit
  22              		.code	16
  23              		.thumb_func
  24              		.type	UART_Pi_UartInit, %function
  25              	UART_Pi_UartInit:
  26              	.LFB0:
  27              		.file 1 "Generated_Source\\PSoC4\\UART_Pi_UART.c"
   1:Generated_Source\PSoC4/UART_Pi_UART.c **** /***************************************************************************//**
   2:Generated_Source\PSoC4/UART_Pi_UART.c **** * \file UART_Pi_UART.c
   3:Generated_Source\PSoC4/UART_Pi_UART.c **** * \version 4.0
   4:Generated_Source\PSoC4/UART_Pi_UART.c **** *
   5:Generated_Source\PSoC4/UART_Pi_UART.c **** * \brief
   6:Generated_Source\PSoC4/UART_Pi_UART.c **** *  This file provides the source code to the API for the SCB Component in
   7:Generated_Source\PSoC4/UART_Pi_UART.c **** *  UART mode.
   8:Generated_Source\PSoC4/UART_Pi_UART.c **** *
   9:Generated_Source\PSoC4/UART_Pi_UART.c **** * Note:
  10:Generated_Source\PSoC4/UART_Pi_UART.c **** *
  11:Generated_Source\PSoC4/UART_Pi_UART.c **** *******************************************************************************
  12:Generated_Source\PSoC4/UART_Pi_UART.c **** * \copyright
  13:Generated_Source\PSoC4/UART_Pi_UART.c **** * Copyright 2013-2017, Cypress Semiconductor Corporation.  All rights reserved.
  14:Generated_Source\PSoC4/UART_Pi_UART.c **** * You may use this file only in accordance with the license, terms, conditions,
  15:Generated_Source\PSoC4/UART_Pi_UART.c **** * disclaimers, and limitations in the end user license agreement accompanying
  16:Generated_Source\PSoC4/UART_Pi_UART.c **** * the software package with which this file was provided.
  17:Generated_Source\PSoC4/UART_Pi_UART.c **** *******************************************************************************/
  18:Generated_Source\PSoC4/UART_Pi_UART.c **** 
  19:Generated_Source\PSoC4/UART_Pi_UART.c **** #include "UART_Pi_PVT.h"
  20:Generated_Source\PSoC4/UART_Pi_UART.c **** #include "UART_Pi_SPI_UART_PVT.h"
  21:Generated_Source\PSoC4/UART_Pi_UART.c **** 
  22:Generated_Source\PSoC4/UART_Pi_UART.c **** 
  23:Generated_Source\PSoC4/UART_Pi_UART.c **** #if (UART_Pi_UART_WAKE_ENABLE_CONST && UART_Pi_UART_RX_WAKEUP_IRQ)
  24:Generated_Source\PSoC4/UART_Pi_UART.c ****     /**
  25:Generated_Source\PSoC4/UART_Pi_UART.c ****     * \addtogroup group_globals
  26:Generated_Source\PSoC4/UART_Pi_UART.c ****     * \{
  27:Generated_Source\PSoC4/UART_Pi_UART.c ****     */
  28:Generated_Source\PSoC4/UART_Pi_UART.c ****     /** This global variable determines whether to enable Skip Start
  29:Generated_Source\PSoC4/UART_Pi_UART.c ****     * functionality when UART_Pi_Sleep() function is called:
  30:Generated_Source\PSoC4/UART_Pi_UART.c ****     * 0 – disable, other values – enable. Default value is 1.
ARM GAS  C:\Users\ANDRES~1\AppData\Local\Temp\ccmr0GAP.s 			page 2


  31:Generated_Source\PSoC4/UART_Pi_UART.c ****     * It is only available when Enable wakeup from Deep Sleep Mode is enabled.
  32:Generated_Source\PSoC4/UART_Pi_UART.c ****     */
  33:Generated_Source\PSoC4/UART_Pi_UART.c ****     uint8 UART_Pi_skipStart = 1u;
  34:Generated_Source\PSoC4/UART_Pi_UART.c ****     /** \} globals */
  35:Generated_Source\PSoC4/UART_Pi_UART.c **** #endif /* (UART_Pi_UART_WAKE_ENABLE_CONST && UART_Pi_UART_RX_WAKEUP_IRQ) */
  36:Generated_Source\PSoC4/UART_Pi_UART.c **** 
  37:Generated_Source\PSoC4/UART_Pi_UART.c **** #if(UART_Pi_SCB_MODE_UNCONFIG_CONST_CFG)
  38:Generated_Source\PSoC4/UART_Pi_UART.c **** 
  39:Generated_Source\PSoC4/UART_Pi_UART.c ****     /***************************************
  40:Generated_Source\PSoC4/UART_Pi_UART.c ****     *  Configuration Structure Initialization
  41:Generated_Source\PSoC4/UART_Pi_UART.c ****     ***************************************/
  42:Generated_Source\PSoC4/UART_Pi_UART.c **** 
  43:Generated_Source\PSoC4/UART_Pi_UART.c ****     const UART_Pi_UART_INIT_STRUCT UART_Pi_configUart =
  44:Generated_Source\PSoC4/UART_Pi_UART.c ****     {
  45:Generated_Source\PSoC4/UART_Pi_UART.c ****         UART_Pi_UART_SUB_MODE,
  46:Generated_Source\PSoC4/UART_Pi_UART.c ****         UART_Pi_UART_DIRECTION,
  47:Generated_Source\PSoC4/UART_Pi_UART.c ****         UART_Pi_UART_DATA_BITS_NUM,
  48:Generated_Source\PSoC4/UART_Pi_UART.c ****         UART_Pi_UART_PARITY_TYPE,
  49:Generated_Source\PSoC4/UART_Pi_UART.c ****         UART_Pi_UART_STOP_BITS_NUM,
  50:Generated_Source\PSoC4/UART_Pi_UART.c ****         UART_Pi_UART_OVS_FACTOR,
  51:Generated_Source\PSoC4/UART_Pi_UART.c ****         UART_Pi_UART_IRDA_LOW_POWER,
  52:Generated_Source\PSoC4/UART_Pi_UART.c ****         UART_Pi_UART_MEDIAN_FILTER_ENABLE,
  53:Generated_Source\PSoC4/UART_Pi_UART.c ****         UART_Pi_UART_RETRY_ON_NACK,
  54:Generated_Source\PSoC4/UART_Pi_UART.c ****         UART_Pi_UART_IRDA_POLARITY,
  55:Generated_Source\PSoC4/UART_Pi_UART.c ****         UART_Pi_UART_DROP_ON_PARITY_ERR,
  56:Generated_Source\PSoC4/UART_Pi_UART.c ****         UART_Pi_UART_DROP_ON_FRAME_ERR,
  57:Generated_Source\PSoC4/UART_Pi_UART.c ****         UART_Pi_UART_WAKE_ENABLE,
  58:Generated_Source\PSoC4/UART_Pi_UART.c ****         0u,
  59:Generated_Source\PSoC4/UART_Pi_UART.c ****         NULL,
  60:Generated_Source\PSoC4/UART_Pi_UART.c ****         0u,
  61:Generated_Source\PSoC4/UART_Pi_UART.c ****         NULL,
  62:Generated_Source\PSoC4/UART_Pi_UART.c ****         UART_Pi_UART_MP_MODE_ENABLE,
  63:Generated_Source\PSoC4/UART_Pi_UART.c ****         UART_Pi_UART_MP_ACCEPT_ADDRESS,
  64:Generated_Source\PSoC4/UART_Pi_UART.c ****         UART_Pi_UART_MP_RX_ADDRESS,
  65:Generated_Source\PSoC4/UART_Pi_UART.c ****         UART_Pi_UART_MP_RX_ADDRESS_MASK,
  66:Generated_Source\PSoC4/UART_Pi_UART.c ****         (uint32) UART_Pi_SCB_IRQ_INTERNAL,
  67:Generated_Source\PSoC4/UART_Pi_UART.c ****         UART_Pi_UART_INTR_RX_MASK,
  68:Generated_Source\PSoC4/UART_Pi_UART.c ****         UART_Pi_UART_RX_TRIGGER_LEVEL,
  69:Generated_Source\PSoC4/UART_Pi_UART.c ****         UART_Pi_UART_INTR_TX_MASK,
  70:Generated_Source\PSoC4/UART_Pi_UART.c ****         UART_Pi_UART_TX_TRIGGER_LEVEL,
  71:Generated_Source\PSoC4/UART_Pi_UART.c ****         (uint8) UART_Pi_UART_BYTE_MODE_ENABLE,
  72:Generated_Source\PSoC4/UART_Pi_UART.c ****         (uint8) UART_Pi_UART_CTS_ENABLE,
  73:Generated_Source\PSoC4/UART_Pi_UART.c ****         (uint8) UART_Pi_UART_CTS_POLARITY,
  74:Generated_Source\PSoC4/UART_Pi_UART.c ****         (uint8) UART_Pi_UART_RTS_POLARITY,
  75:Generated_Source\PSoC4/UART_Pi_UART.c ****         (uint8) UART_Pi_UART_RTS_FIFO_LEVEL,
  76:Generated_Source\PSoC4/UART_Pi_UART.c ****         (uint8) UART_Pi_UART_RX_BREAK_WIDTH
  77:Generated_Source\PSoC4/UART_Pi_UART.c ****     };
  78:Generated_Source\PSoC4/UART_Pi_UART.c **** 
  79:Generated_Source\PSoC4/UART_Pi_UART.c **** 
  80:Generated_Source\PSoC4/UART_Pi_UART.c ****     /*******************************************************************************
  81:Generated_Source\PSoC4/UART_Pi_UART.c ****     * Function Name: UART_Pi_UartInit
  82:Generated_Source\PSoC4/UART_Pi_UART.c ****     ****************************************************************************//**
  83:Generated_Source\PSoC4/UART_Pi_UART.c ****     *
  84:Generated_Source\PSoC4/UART_Pi_UART.c ****     *  Configures the UART_Pi for UART operation.
  85:Generated_Source\PSoC4/UART_Pi_UART.c ****     *
  86:Generated_Source\PSoC4/UART_Pi_UART.c ****     *  This function is intended specifically to be used when the UART_Pi
  87:Generated_Source\PSoC4/UART_Pi_UART.c ****     *  configuration is set to “Unconfigured UART_Pi” in the customizer.
ARM GAS  C:\Users\ANDRES~1\AppData\Local\Temp\ccmr0GAP.s 			page 3


  88:Generated_Source\PSoC4/UART_Pi_UART.c ****     *  After initializing the UART_Pi in UART mode using this function,
  89:Generated_Source\PSoC4/UART_Pi_UART.c ****     *  the component can be enabled using the UART_Pi_Start() or
  90:Generated_Source\PSoC4/UART_Pi_UART.c ****     * UART_Pi_Enable() function.
  91:Generated_Source\PSoC4/UART_Pi_UART.c ****     *  This function uses a pointer to a structure that provides the configuration
  92:Generated_Source\PSoC4/UART_Pi_UART.c ****     *  settings. This structure contains the same information that would otherwise
  93:Generated_Source\PSoC4/UART_Pi_UART.c ****     *  be provided by the customizer settings.
  94:Generated_Source\PSoC4/UART_Pi_UART.c ****     *
  95:Generated_Source\PSoC4/UART_Pi_UART.c ****     *  \param config: pointer to a structure that contains the following list of
  96:Generated_Source\PSoC4/UART_Pi_UART.c ****     *   fields. These fields match the selections available in the customizer.
  97:Generated_Source\PSoC4/UART_Pi_UART.c ****     *   Refer to the customizer for further description of the settings.
  98:Generated_Source\PSoC4/UART_Pi_UART.c ****     *
  99:Generated_Source\PSoC4/UART_Pi_UART.c ****     *******************************************************************************/
 100:Generated_Source\PSoC4/UART_Pi_UART.c ****     void UART_Pi_UartInit(const UART_Pi_UART_INIT_STRUCT *config)
 101:Generated_Source\PSoC4/UART_Pi_UART.c ****     {
 102:Generated_Source\PSoC4/UART_Pi_UART.c ****         uint32 pinsConfig;
 103:Generated_Source\PSoC4/UART_Pi_UART.c **** 
 104:Generated_Source\PSoC4/UART_Pi_UART.c ****         if (NULL == config)
 105:Generated_Source\PSoC4/UART_Pi_UART.c ****         {
 106:Generated_Source\PSoC4/UART_Pi_UART.c ****             CYASSERT(0u != 0u); /* Halt execution due to bad function parameter */
 107:Generated_Source\PSoC4/UART_Pi_UART.c ****         }
 108:Generated_Source\PSoC4/UART_Pi_UART.c ****         else
 109:Generated_Source\PSoC4/UART_Pi_UART.c ****         {
 110:Generated_Source\PSoC4/UART_Pi_UART.c ****             /* Get direction to configure UART pins: TX, RX or TX+RX */
 111:Generated_Source\PSoC4/UART_Pi_UART.c ****             pinsConfig  = config->direction;
 112:Generated_Source\PSoC4/UART_Pi_UART.c **** 
 113:Generated_Source\PSoC4/UART_Pi_UART.c ****         #if !(UART_Pi_CY_SCBIP_V0 || UART_Pi_CY_SCBIP_V1)
 114:Generated_Source\PSoC4/UART_Pi_UART.c ****             /* Add RTS and CTS pins to configure */
 115:Generated_Source\PSoC4/UART_Pi_UART.c ****             pinsConfig |= (0u != config->rtsRxFifoLevel) ? (UART_Pi_UART_RTS_PIN_ENABLE) : (0u);
 116:Generated_Source\PSoC4/UART_Pi_UART.c ****             pinsConfig |= (0u != config->enableCts)      ? (UART_Pi_UART_CTS_PIN_ENABLE) : (0u);
 117:Generated_Source\PSoC4/UART_Pi_UART.c ****         #endif /* !(UART_Pi_CY_SCBIP_V0 || UART_Pi_CY_SCBIP_V1) */
 118:Generated_Source\PSoC4/UART_Pi_UART.c **** 
 119:Generated_Source\PSoC4/UART_Pi_UART.c ****             /* Configure pins */
 120:Generated_Source\PSoC4/UART_Pi_UART.c ****             UART_Pi_SetPins(UART_Pi_SCB_MODE_UART, config->mode, pinsConfig);
 121:Generated_Source\PSoC4/UART_Pi_UART.c **** 
 122:Generated_Source\PSoC4/UART_Pi_UART.c ****             /* Store internal configuration */
 123:Generated_Source\PSoC4/UART_Pi_UART.c ****             UART_Pi_scbMode       = (uint8) UART_Pi_SCB_MODE_UART;
 124:Generated_Source\PSoC4/UART_Pi_UART.c ****             UART_Pi_scbEnableWake = (uint8) config->enableWake;
 125:Generated_Source\PSoC4/UART_Pi_UART.c ****             UART_Pi_scbEnableIntr = (uint8) config->enableInterrupt;
 126:Generated_Source\PSoC4/UART_Pi_UART.c **** 
 127:Generated_Source\PSoC4/UART_Pi_UART.c ****             /* Set RX direction internal variables */
 128:Generated_Source\PSoC4/UART_Pi_UART.c ****             UART_Pi_rxBuffer      =         config->rxBuffer;
 129:Generated_Source\PSoC4/UART_Pi_UART.c ****             UART_Pi_rxDataBits    = (uint8) config->dataBits;
 130:Generated_Source\PSoC4/UART_Pi_UART.c ****             UART_Pi_rxBufferSize  =         config->rxBufferSize;
 131:Generated_Source\PSoC4/UART_Pi_UART.c **** 
 132:Generated_Source\PSoC4/UART_Pi_UART.c ****             /* Set TX direction internal variables */
 133:Generated_Source\PSoC4/UART_Pi_UART.c ****             UART_Pi_txBuffer      =         config->txBuffer;
 134:Generated_Source\PSoC4/UART_Pi_UART.c ****             UART_Pi_txDataBits    = (uint8) config->dataBits;
 135:Generated_Source\PSoC4/UART_Pi_UART.c ****             UART_Pi_txBufferSize  =         config->txBufferSize;
 136:Generated_Source\PSoC4/UART_Pi_UART.c **** 
 137:Generated_Source\PSoC4/UART_Pi_UART.c ****             /* Configure UART interface */
 138:Generated_Source\PSoC4/UART_Pi_UART.c ****             if(UART_Pi_UART_MODE_IRDA == config->mode)
 139:Generated_Source\PSoC4/UART_Pi_UART.c ****             {
 140:Generated_Source\PSoC4/UART_Pi_UART.c ****                 /* OVS settings: IrDA */
 141:Generated_Source\PSoC4/UART_Pi_UART.c ****                 UART_Pi_CTRL_REG  = ((0u != config->enableIrdaLowPower) ?
 142:Generated_Source\PSoC4/UART_Pi_UART.c ****                                                 (UART_Pi_UART_GET_CTRL_OVS_IRDA_LP(config->oversamp
 143:Generated_Source\PSoC4/UART_Pi_UART.c ****                                                 (UART_Pi_CTRL_OVS_IRDA_OVS16));
 144:Generated_Source\PSoC4/UART_Pi_UART.c ****             }
ARM GAS  C:\Users\ANDRES~1\AppData\Local\Temp\ccmr0GAP.s 			page 4


 145:Generated_Source\PSoC4/UART_Pi_UART.c ****             else
 146:Generated_Source\PSoC4/UART_Pi_UART.c ****             {
 147:Generated_Source\PSoC4/UART_Pi_UART.c ****                 /* OVS settings: UART and SmartCard */
 148:Generated_Source\PSoC4/UART_Pi_UART.c ****                 UART_Pi_CTRL_REG  = UART_Pi_GET_CTRL_OVS(config->oversample);
 149:Generated_Source\PSoC4/UART_Pi_UART.c ****             }
 150:Generated_Source\PSoC4/UART_Pi_UART.c **** 
 151:Generated_Source\PSoC4/UART_Pi_UART.c ****             UART_Pi_CTRL_REG     |= UART_Pi_GET_CTRL_BYTE_MODE  (config->enableByteMode)      |
 152:Generated_Source\PSoC4/UART_Pi_UART.c ****                                              UART_Pi_GET_CTRL_ADDR_ACCEPT(config->multiprocAcceptAd
 153:Generated_Source\PSoC4/UART_Pi_UART.c ****                                              UART_Pi_CTRL_UART;
 154:Generated_Source\PSoC4/UART_Pi_UART.c **** 
 155:Generated_Source\PSoC4/UART_Pi_UART.c ****             /* Configure sub-mode: UART, SmartCard or IrDA */
 156:Generated_Source\PSoC4/UART_Pi_UART.c ****             UART_Pi_UART_CTRL_REG = UART_Pi_GET_UART_CTRL_MODE(config->mode);
 157:Generated_Source\PSoC4/UART_Pi_UART.c **** 
 158:Generated_Source\PSoC4/UART_Pi_UART.c ****             /* Configure RX direction */
 159:Generated_Source\PSoC4/UART_Pi_UART.c ****             UART_Pi_UART_RX_CTRL_REG = UART_Pi_GET_UART_RX_CTRL_MODE(config->stopBits)             
 160:Generated_Source\PSoC4/UART_Pi_UART.c ****                                         UART_Pi_GET_UART_RX_CTRL_POLARITY(config->enableInvertedRx)
 161:Generated_Source\PSoC4/UART_Pi_UART.c ****                                         UART_Pi_GET_UART_RX_CTRL_MP_MODE(config->enableMultiproc)  
 162:Generated_Source\PSoC4/UART_Pi_UART.c ****                                         UART_Pi_GET_UART_RX_CTRL_DROP_ON_PARITY_ERR(config->dropOnP
 163:Generated_Source\PSoC4/UART_Pi_UART.c ****                                         UART_Pi_GET_UART_RX_CTRL_DROP_ON_FRAME_ERR(config->dropOnFr
 164:Generated_Source\PSoC4/UART_Pi_UART.c ****                                         UART_Pi_GET_UART_RX_CTRL_BREAK_WIDTH(config->breakWidth);
 165:Generated_Source\PSoC4/UART_Pi_UART.c **** 
 166:Generated_Source\PSoC4/UART_Pi_UART.c ****             if(UART_Pi_UART_PARITY_NONE != config->parity)
 167:Generated_Source\PSoC4/UART_Pi_UART.c ****             {
 168:Generated_Source\PSoC4/UART_Pi_UART.c ****                UART_Pi_UART_RX_CTRL_REG |= UART_Pi_GET_UART_RX_CTRL_PARITY(config->parity) |
 169:Generated_Source\PSoC4/UART_Pi_UART.c ****                                                     UART_Pi_UART_RX_CTRL_PARITY_ENABLED;
 170:Generated_Source\PSoC4/UART_Pi_UART.c ****             }
 171:Generated_Source\PSoC4/UART_Pi_UART.c **** 
 172:Generated_Source\PSoC4/UART_Pi_UART.c ****             UART_Pi_RX_CTRL_REG      = UART_Pi_GET_RX_CTRL_DATA_WIDTH(config->dataBits)       |
 173:Generated_Source\PSoC4/UART_Pi_UART.c ****                                                 UART_Pi_GET_RX_CTRL_MEDIAN(config->enableMedianFilt
 174:Generated_Source\PSoC4/UART_Pi_UART.c ****                                                 UART_Pi_GET_UART_RX_CTRL_ENABLED(config->direction)
 175:Generated_Source\PSoC4/UART_Pi_UART.c **** 
 176:Generated_Source\PSoC4/UART_Pi_UART.c ****             UART_Pi_RX_FIFO_CTRL_REG = UART_Pi_GET_RX_FIFO_CTRL_TRIGGER_LEVEL(config->rxTriggerLeve
 177:Generated_Source\PSoC4/UART_Pi_UART.c **** 
 178:Generated_Source\PSoC4/UART_Pi_UART.c ****             /* Configure MP address */
 179:Generated_Source\PSoC4/UART_Pi_UART.c ****             UART_Pi_RX_MATCH_REG     = UART_Pi_GET_RX_MATCH_ADDR(config->multiprocAddr) |
 180:Generated_Source\PSoC4/UART_Pi_UART.c ****                                                 UART_Pi_GET_RX_MATCH_MASK(config->multiprocAddrMask
 181:Generated_Source\PSoC4/UART_Pi_UART.c **** 
 182:Generated_Source\PSoC4/UART_Pi_UART.c ****             /* Configure RX direction */
 183:Generated_Source\PSoC4/UART_Pi_UART.c ****             UART_Pi_UART_TX_CTRL_REG = UART_Pi_GET_UART_TX_CTRL_MODE(config->stopBits) |
 184:Generated_Source\PSoC4/UART_Pi_UART.c ****                                                 UART_Pi_GET_UART_TX_CTRL_RETRY_NACK(config->enableR
 185:Generated_Source\PSoC4/UART_Pi_UART.c **** 
 186:Generated_Source\PSoC4/UART_Pi_UART.c ****             if(UART_Pi_UART_PARITY_NONE != config->parity)
 187:Generated_Source\PSoC4/UART_Pi_UART.c ****             {
 188:Generated_Source\PSoC4/UART_Pi_UART.c ****                UART_Pi_UART_TX_CTRL_REG |= UART_Pi_GET_UART_TX_CTRL_PARITY(config->parity) |
 189:Generated_Source\PSoC4/UART_Pi_UART.c ****                                                     UART_Pi_UART_TX_CTRL_PARITY_ENABLED;
 190:Generated_Source\PSoC4/UART_Pi_UART.c ****             }
 191:Generated_Source\PSoC4/UART_Pi_UART.c **** 
 192:Generated_Source\PSoC4/UART_Pi_UART.c ****             UART_Pi_TX_CTRL_REG      = UART_Pi_GET_TX_CTRL_DATA_WIDTH(config->dataBits)    |
 193:Generated_Source\PSoC4/UART_Pi_UART.c ****                                                 UART_Pi_GET_UART_TX_CTRL_ENABLED(config->direction)
 194:Generated_Source\PSoC4/UART_Pi_UART.c **** 
 195:Generated_Source\PSoC4/UART_Pi_UART.c ****             UART_Pi_TX_FIFO_CTRL_REG = UART_Pi_GET_TX_FIFO_CTRL_TRIGGER_LEVEL(config->txTriggerLeve
 196:Generated_Source\PSoC4/UART_Pi_UART.c **** 
 197:Generated_Source\PSoC4/UART_Pi_UART.c ****         #if !(UART_Pi_CY_SCBIP_V0 || UART_Pi_CY_SCBIP_V1)
 198:Generated_Source\PSoC4/UART_Pi_UART.c ****             UART_Pi_UART_FLOW_CTRL_REG = UART_Pi_GET_UART_FLOW_CTRL_CTS_ENABLE(config->enableCts) |
 199:Generated_Source\PSoC4/UART_Pi_UART.c ****                                             UART_Pi_GET_UART_FLOW_CTRL_CTS_POLARITY (config->ctsPol
 200:Generated_Source\PSoC4/UART_Pi_UART.c ****                                             UART_Pi_GET_UART_FLOW_CTRL_RTS_POLARITY (config->rtsPol
 201:Generated_Source\PSoC4/UART_Pi_UART.c ****                                             UART_Pi_GET_UART_FLOW_CTRL_TRIGGER_LEVEL(config->rtsRxF
ARM GAS  C:\Users\ANDRES~1\AppData\Local\Temp\ccmr0GAP.s 			page 5


 202:Generated_Source\PSoC4/UART_Pi_UART.c ****         #endif /* !(UART_Pi_CY_SCBIP_V0 || UART_Pi_CY_SCBIP_V1) */
 203:Generated_Source\PSoC4/UART_Pi_UART.c **** 
 204:Generated_Source\PSoC4/UART_Pi_UART.c ****             /* Configure interrupt with UART handler but do not enable it */
 205:Generated_Source\PSoC4/UART_Pi_UART.c ****             CyIntDisable    (UART_Pi_ISR_NUMBER);
 206:Generated_Source\PSoC4/UART_Pi_UART.c ****             CyIntSetPriority(UART_Pi_ISR_NUMBER, UART_Pi_ISR_PRIORITY);
 207:Generated_Source\PSoC4/UART_Pi_UART.c ****             (void) CyIntSetVector(UART_Pi_ISR_NUMBER, &UART_Pi_SPI_UART_ISR);
 208:Generated_Source\PSoC4/UART_Pi_UART.c **** 
 209:Generated_Source\PSoC4/UART_Pi_UART.c ****             /* Configure WAKE interrupt */
 210:Generated_Source\PSoC4/UART_Pi_UART.c ****         #if(UART_Pi_UART_RX_WAKEUP_IRQ)
 211:Generated_Source\PSoC4/UART_Pi_UART.c ****             CyIntDisable    (UART_Pi_RX_WAKE_ISR_NUMBER);
 212:Generated_Source\PSoC4/UART_Pi_UART.c ****             CyIntSetPriority(UART_Pi_RX_WAKE_ISR_NUMBER, UART_Pi_RX_WAKE_ISR_PRIORITY);
 213:Generated_Source\PSoC4/UART_Pi_UART.c ****             (void) CyIntSetVector(UART_Pi_RX_WAKE_ISR_NUMBER, &UART_Pi_UART_WAKEUP_ISR);
 214:Generated_Source\PSoC4/UART_Pi_UART.c ****         #endif /* (UART_Pi_UART_RX_WAKEUP_IRQ) */
 215:Generated_Source\PSoC4/UART_Pi_UART.c **** 
 216:Generated_Source\PSoC4/UART_Pi_UART.c ****             /* Configure interrupt sources */
 217:Generated_Source\PSoC4/UART_Pi_UART.c ****             UART_Pi_INTR_I2C_EC_MASK_REG = UART_Pi_NO_INTR_SOURCES;
 218:Generated_Source\PSoC4/UART_Pi_UART.c ****             UART_Pi_INTR_SPI_EC_MASK_REG = UART_Pi_NO_INTR_SOURCES;
 219:Generated_Source\PSoC4/UART_Pi_UART.c ****             UART_Pi_INTR_SLAVE_MASK_REG  = UART_Pi_NO_INTR_SOURCES;
 220:Generated_Source\PSoC4/UART_Pi_UART.c ****             UART_Pi_INTR_MASTER_MASK_REG = UART_Pi_NO_INTR_SOURCES;
 221:Generated_Source\PSoC4/UART_Pi_UART.c ****             UART_Pi_INTR_RX_MASK_REG     = config->rxInterruptMask;
 222:Generated_Source\PSoC4/UART_Pi_UART.c ****             UART_Pi_INTR_TX_MASK_REG     = config->txInterruptMask;
 223:Generated_Source\PSoC4/UART_Pi_UART.c **** 
 224:Generated_Source\PSoC4/UART_Pi_UART.c ****             /* Configure TX interrupt sources to restore. */
 225:Generated_Source\PSoC4/UART_Pi_UART.c ****             UART_Pi_IntrTxMask = LO16(UART_Pi_INTR_TX_MASK_REG);
 226:Generated_Source\PSoC4/UART_Pi_UART.c **** 
 227:Generated_Source\PSoC4/UART_Pi_UART.c ****             /* Clear RX buffer indexes */
 228:Generated_Source\PSoC4/UART_Pi_UART.c ****             UART_Pi_rxBufferHead     = 0u;
 229:Generated_Source\PSoC4/UART_Pi_UART.c ****             UART_Pi_rxBufferTail     = 0u;
 230:Generated_Source\PSoC4/UART_Pi_UART.c ****             UART_Pi_rxBufferOverflow = 0u;
 231:Generated_Source\PSoC4/UART_Pi_UART.c **** 
 232:Generated_Source\PSoC4/UART_Pi_UART.c ****             /* Clear TX buffer indexes */
 233:Generated_Source\PSoC4/UART_Pi_UART.c ****             UART_Pi_txBufferHead = 0u;
 234:Generated_Source\PSoC4/UART_Pi_UART.c ****             UART_Pi_txBufferTail = 0u;
 235:Generated_Source\PSoC4/UART_Pi_UART.c ****         }
 236:Generated_Source\PSoC4/UART_Pi_UART.c ****     }
 237:Generated_Source\PSoC4/UART_Pi_UART.c **** 
 238:Generated_Source\PSoC4/UART_Pi_UART.c **** #else
 239:Generated_Source\PSoC4/UART_Pi_UART.c **** 
 240:Generated_Source\PSoC4/UART_Pi_UART.c ****     /*******************************************************************************
 241:Generated_Source\PSoC4/UART_Pi_UART.c ****     * Function Name: UART_Pi_UartInit
 242:Generated_Source\PSoC4/UART_Pi_UART.c ****     ****************************************************************************//**
 243:Generated_Source\PSoC4/UART_Pi_UART.c ****     *
 244:Generated_Source\PSoC4/UART_Pi_UART.c ****     *  Configures the SCB for the UART operation.
 245:Generated_Source\PSoC4/UART_Pi_UART.c ****     *
 246:Generated_Source\PSoC4/UART_Pi_UART.c ****     *******************************************************************************/
 247:Generated_Source\PSoC4/UART_Pi_UART.c ****     void UART_Pi_UartInit(void)
 248:Generated_Source\PSoC4/UART_Pi_UART.c ****     {
  28              		.loc 1 248 0
  29              		.cfi_startproc
  30              		@ args = 0, pretend = 0, frame = 0
  31              		@ frame_needed = 1, uses_anonymous_args = 0
  32 0000 80B5     		push	{r7, lr}
  33              		.cfi_def_cfa_offset 8
  34              		.cfi_offset 7, -8
  35              		.cfi_offset 14, -4
  36 0002 00AF     		add	r7, sp, #0
  37              		.cfi_def_cfa_register 7
ARM GAS  C:\Users\ANDRES~1\AppData\Local\Temp\ccmr0GAP.s 			page 6


 249:Generated_Source\PSoC4/UART_Pi_UART.c ****         /* Configure UART interface */
 250:Generated_Source\PSoC4/UART_Pi_UART.c ****         UART_Pi_CTRL_REG = UART_Pi_UART_DEFAULT_CTRL;
  38              		.loc 1 250 0
  39 0004 204B     		ldr	r3, .L2
  40 0006 214A     		ldr	r2, .L2+4
  41 0008 1A60     		str	r2, [r3]
 251:Generated_Source\PSoC4/UART_Pi_UART.c **** 
 252:Generated_Source\PSoC4/UART_Pi_UART.c ****         /* Configure sub-mode: UART, SmartCard or IrDA */
 253:Generated_Source\PSoC4/UART_Pi_UART.c ****         UART_Pi_UART_CTRL_REG = UART_Pi_UART_DEFAULT_UART_CTRL;
  42              		.loc 1 253 0
  43 000a 214B     		ldr	r3, .L2+8
  44 000c 0022     		movs	r2, #0
  45 000e 1A60     		str	r2, [r3]
 254:Generated_Source\PSoC4/UART_Pi_UART.c **** 
 255:Generated_Source\PSoC4/UART_Pi_UART.c ****         /* Configure RX direction */
 256:Generated_Source\PSoC4/UART_Pi_UART.c ****         UART_Pi_UART_RX_CTRL_REG = UART_Pi_UART_DEFAULT_UART_RX_CTRL;
  46              		.loc 1 256 0
  47 0010 204B     		ldr	r3, .L2+12
  48 0012 214A     		ldr	r2, .L2+16
  49 0014 1A60     		str	r2, [r3]
 257:Generated_Source\PSoC4/UART_Pi_UART.c ****         UART_Pi_RX_CTRL_REG      = UART_Pi_UART_DEFAULT_RX_CTRL;
  50              		.loc 1 257 0
  51 0016 214B     		ldr	r3, .L2+20
  52 0018 214A     		ldr	r2, .L2+24
  53 001a 1A60     		str	r2, [r3]
 258:Generated_Source\PSoC4/UART_Pi_UART.c ****         UART_Pi_RX_FIFO_CTRL_REG = UART_Pi_UART_DEFAULT_RX_FIFO_CTRL;
  54              		.loc 1 258 0
  55 001c 214B     		ldr	r3, .L2+28
  56 001e 0722     		movs	r2, #7
  57 0020 1A60     		str	r2, [r3]
 259:Generated_Source\PSoC4/UART_Pi_UART.c ****         UART_Pi_RX_MATCH_REG     = UART_Pi_UART_DEFAULT_RX_MATCH_REG;
  58              		.loc 1 259 0
  59 0022 214B     		ldr	r3, .L2+32
  60 0024 0022     		movs	r2, #0
  61 0026 1A60     		str	r2, [r3]
 260:Generated_Source\PSoC4/UART_Pi_UART.c **** 
 261:Generated_Source\PSoC4/UART_Pi_UART.c ****         /* Configure TX direction */
 262:Generated_Source\PSoC4/UART_Pi_UART.c ****         UART_Pi_UART_TX_CTRL_REG = UART_Pi_UART_DEFAULT_UART_TX_CTRL;
  62              		.loc 1 262 0
  63 0028 204B     		ldr	r3, .L2+36
  64 002a 3122     		movs	r2, #49
  65 002c 1A60     		str	r2, [r3]
 263:Generated_Source\PSoC4/UART_Pi_UART.c ****         UART_Pi_TX_CTRL_REG      = UART_Pi_UART_DEFAULT_TX_CTRL;
  66              		.loc 1 263 0
  67 002e 204B     		ldr	r3, .L2+40
  68 0030 1B4A     		ldr	r2, .L2+24
  69 0032 1A60     		str	r2, [r3]
 264:Generated_Source\PSoC4/UART_Pi_UART.c ****         UART_Pi_TX_FIFO_CTRL_REG = UART_Pi_UART_DEFAULT_TX_FIFO_CTRL;
  70              		.loc 1 264 0
  71 0034 1F4B     		ldr	r3, .L2+44
  72 0036 0022     		movs	r2, #0
  73 0038 1A60     		str	r2, [r3]
 265:Generated_Source\PSoC4/UART_Pi_UART.c **** 
 266:Generated_Source\PSoC4/UART_Pi_UART.c ****     #if !(UART_Pi_CY_SCBIP_V0 || UART_Pi_CY_SCBIP_V1)
 267:Generated_Source\PSoC4/UART_Pi_UART.c ****         UART_Pi_UART_FLOW_CTRL_REG = UART_Pi_UART_DEFAULT_FLOW_CTRL;
 268:Generated_Source\PSoC4/UART_Pi_UART.c ****     #endif /* !(UART_Pi_CY_SCBIP_V0 || UART_Pi_CY_SCBIP_V1) */
 269:Generated_Source\PSoC4/UART_Pi_UART.c **** 
ARM GAS  C:\Users\ANDRES~1\AppData\Local\Temp\ccmr0GAP.s 			page 7


 270:Generated_Source\PSoC4/UART_Pi_UART.c ****         /* Configure interrupt with UART handler but do not enable it */
 271:Generated_Source\PSoC4/UART_Pi_UART.c ****     #if(UART_Pi_SCB_IRQ_INTERNAL)
 272:Generated_Source\PSoC4/UART_Pi_UART.c ****         CyIntDisable    (UART_Pi_ISR_NUMBER);
  74              		.loc 1 272 0
  75 003a 0B20     		movs	r0, #11
  76 003c FFF7FEFF 		bl	CyIntDisable
 273:Generated_Source\PSoC4/UART_Pi_UART.c ****         CyIntSetPriority(UART_Pi_ISR_NUMBER, UART_Pi_ISR_PRIORITY);
  77              		.loc 1 273 0
  78 0040 0321     		movs	r1, #3
  79 0042 0B20     		movs	r0, #11
  80 0044 FFF7FEFF 		bl	CyIntSetPriority
 274:Generated_Source\PSoC4/UART_Pi_UART.c ****         (void) CyIntSetVector(UART_Pi_ISR_NUMBER, &UART_Pi_SPI_UART_ISR);
  81              		.loc 1 274 0
  82 0048 1B4B     		ldr	r3, .L2+48
  83 004a 1900     		movs	r1, r3
  84 004c 0B20     		movs	r0, #11
  85 004e FFF7FEFF 		bl	CyIntSetVector
 275:Generated_Source\PSoC4/UART_Pi_UART.c ****     #endif /* (UART_Pi_SCB_IRQ_INTERNAL) */
 276:Generated_Source\PSoC4/UART_Pi_UART.c **** 
 277:Generated_Source\PSoC4/UART_Pi_UART.c ****         /* Configure WAKE interrupt */
 278:Generated_Source\PSoC4/UART_Pi_UART.c ****     #if(UART_Pi_UART_RX_WAKEUP_IRQ)
 279:Generated_Source\PSoC4/UART_Pi_UART.c ****         CyIntDisable    (UART_Pi_RX_WAKE_ISR_NUMBER);
 280:Generated_Source\PSoC4/UART_Pi_UART.c ****         CyIntSetPriority(UART_Pi_RX_WAKE_ISR_NUMBER, UART_Pi_RX_WAKE_ISR_PRIORITY);
 281:Generated_Source\PSoC4/UART_Pi_UART.c ****         (void) CyIntSetVector(UART_Pi_RX_WAKE_ISR_NUMBER, &UART_Pi_UART_WAKEUP_ISR);
 282:Generated_Source\PSoC4/UART_Pi_UART.c ****     #endif /* (UART_Pi_UART_RX_WAKEUP_IRQ) */
 283:Generated_Source\PSoC4/UART_Pi_UART.c **** 
 284:Generated_Source\PSoC4/UART_Pi_UART.c ****         /* Configure interrupt sources */
 285:Generated_Source\PSoC4/UART_Pi_UART.c ****         UART_Pi_INTR_I2C_EC_MASK_REG = UART_Pi_UART_DEFAULT_INTR_I2C_EC_MASK;
  86              		.loc 1 285 0
  87 0052 1A4B     		ldr	r3, .L2+52
  88 0054 0022     		movs	r2, #0
  89 0056 1A60     		str	r2, [r3]
 286:Generated_Source\PSoC4/UART_Pi_UART.c ****         UART_Pi_INTR_SPI_EC_MASK_REG = UART_Pi_UART_DEFAULT_INTR_SPI_EC_MASK;
  90              		.loc 1 286 0
  91 0058 194B     		ldr	r3, .L2+56
  92 005a 0022     		movs	r2, #0
  93 005c 1A60     		str	r2, [r3]
 287:Generated_Source\PSoC4/UART_Pi_UART.c ****         UART_Pi_INTR_SLAVE_MASK_REG  = UART_Pi_UART_DEFAULT_INTR_SLAVE_MASK;
  94              		.loc 1 287 0
  95 005e 194B     		ldr	r3, .L2+60
  96 0060 0022     		movs	r2, #0
  97 0062 1A60     		str	r2, [r3]
 288:Generated_Source\PSoC4/UART_Pi_UART.c ****         UART_Pi_INTR_MASTER_MASK_REG = UART_Pi_UART_DEFAULT_INTR_MASTER_MASK;
  98              		.loc 1 288 0
  99 0064 184B     		ldr	r3, .L2+64
 100 0066 0022     		movs	r2, #0
 101 0068 1A60     		str	r2, [r3]
 289:Generated_Source\PSoC4/UART_Pi_UART.c ****         UART_Pi_INTR_RX_MASK_REG     = UART_Pi_UART_DEFAULT_INTR_RX_MASK;
 102              		.loc 1 289 0
 103 006a 184B     		ldr	r3, .L2+68
 104 006c 0422     		movs	r2, #4
 105 006e 1A60     		str	r2, [r3]
 290:Generated_Source\PSoC4/UART_Pi_UART.c ****         UART_Pi_INTR_TX_MASK_REG     = UART_Pi_UART_DEFAULT_INTR_TX_MASK;
 106              		.loc 1 290 0
 107 0070 174B     		ldr	r3, .L2+72
 108 0072 0022     		movs	r2, #0
 109 0074 1A60     		str	r2, [r3]
ARM GAS  C:\Users\ANDRES~1\AppData\Local\Temp\ccmr0GAP.s 			page 8


 291:Generated_Source\PSoC4/UART_Pi_UART.c **** 
 292:Generated_Source\PSoC4/UART_Pi_UART.c ****         /* Configure TX interrupt sources to restore. */
 293:Generated_Source\PSoC4/UART_Pi_UART.c ****         UART_Pi_IntrTxMask = LO16(UART_Pi_INTR_TX_MASK_REG);
 110              		.loc 1 293 0
 111 0076 164B     		ldr	r3, .L2+72
 112 0078 1B68     		ldr	r3, [r3]
 113 007a 9AB2     		uxth	r2, r3
 114 007c 154B     		ldr	r3, .L2+76
 115 007e 1A80     		strh	r2, [r3]
 294:Generated_Source\PSoC4/UART_Pi_UART.c **** 
 295:Generated_Source\PSoC4/UART_Pi_UART.c ****     #if(UART_Pi_INTERNAL_RX_SW_BUFFER_CONST)
 296:Generated_Source\PSoC4/UART_Pi_UART.c ****         UART_Pi_rxBufferHead     = 0u;
 297:Generated_Source\PSoC4/UART_Pi_UART.c ****         UART_Pi_rxBufferTail     = 0u;
 298:Generated_Source\PSoC4/UART_Pi_UART.c ****         UART_Pi_rxBufferOverflow = 0u;
 299:Generated_Source\PSoC4/UART_Pi_UART.c ****     #endif /* (UART_Pi_INTERNAL_RX_SW_BUFFER_CONST) */
 300:Generated_Source\PSoC4/UART_Pi_UART.c **** 
 301:Generated_Source\PSoC4/UART_Pi_UART.c ****     #if(UART_Pi_INTERNAL_TX_SW_BUFFER_CONST)
 302:Generated_Source\PSoC4/UART_Pi_UART.c ****         UART_Pi_txBufferHead = 0u;
 303:Generated_Source\PSoC4/UART_Pi_UART.c ****         UART_Pi_txBufferTail = 0u;
 304:Generated_Source\PSoC4/UART_Pi_UART.c ****     #endif /* (UART_Pi_INTERNAL_TX_SW_BUFFER_CONST) */
 305:Generated_Source\PSoC4/UART_Pi_UART.c ****     }
 116              		.loc 1 305 0
 117 0080 C046     		nop
 118 0082 BD46     		mov	sp, r7
 119              		@ sp needed
 120 0084 80BD     		pop	{r7, pc}
 121              	.L3:
 122 0086 C046     		.align	2
 123              	.L2:
 124 0088 00000740 		.word	1074200576
 125 008c 07000002 		.word	33554439
 126 0090 40000740 		.word	1074200640
 127 0094 48000740 		.word	1074200648
 128 0098 31000A00 		.word	655409
 129 009c 00030740 		.word	1074201344
 130 00a0 07000080 		.word	-2147483641
 131 00a4 04030740 		.word	1074201348
 132 00a8 10030740 		.word	1074201360
 133 00ac 44000740 		.word	1074200644
 134 00b0 00020740 		.word	1074201088
 135 00b4 04020740 		.word	1074201092
 136 00b8 00000000 		.word	UART_Pi_SPI_UART_ISR
 137 00bc 880E0740 		.word	1074204296
 138 00c0 C80E0740 		.word	1074204360
 139 00c4 480F0740 		.word	1074204488
 140 00c8 080F0740 		.word	1074204424
 141 00cc C80F0740 		.word	1074204616
 142 00d0 880F0740 		.word	1074204552
 143 00d4 00000000 		.word	UART_Pi_IntrTxMask
 144              		.cfi_endproc
 145              	.LFE0:
 146              		.size	UART_Pi_UartInit, .-UART_Pi_UartInit
 147              		.section	.text.UART_Pi_UartPostEnable,"ax",%progbits
 148              		.align	2
 149              		.global	UART_Pi_UartPostEnable
 150              		.code	16
 151              		.thumb_func
ARM GAS  C:\Users\ANDRES~1\AppData\Local\Temp\ccmr0GAP.s 			page 9


 152              		.type	UART_Pi_UartPostEnable, %function
 153              	UART_Pi_UartPostEnable:
 154              	.LFB1:
 306:Generated_Source\PSoC4/UART_Pi_UART.c **** #endif /* (UART_Pi_SCB_MODE_UNCONFIG_CONST_CFG) */
 307:Generated_Source\PSoC4/UART_Pi_UART.c **** 
 308:Generated_Source\PSoC4/UART_Pi_UART.c **** 
 309:Generated_Source\PSoC4/UART_Pi_UART.c **** /*******************************************************************************
 310:Generated_Source\PSoC4/UART_Pi_UART.c **** * Function Name: UART_Pi_UartPostEnable
 311:Generated_Source\PSoC4/UART_Pi_UART.c **** ****************************************************************************//**
 312:Generated_Source\PSoC4/UART_Pi_UART.c **** *
 313:Generated_Source\PSoC4/UART_Pi_UART.c **** *  Restores HSIOM settings for the UART output pins (TX and/or RTS) to be
 314:Generated_Source\PSoC4/UART_Pi_UART.c **** *  controlled by the SCB UART.
 315:Generated_Source\PSoC4/UART_Pi_UART.c **** *
 316:Generated_Source\PSoC4/UART_Pi_UART.c **** *******************************************************************************/
 317:Generated_Source\PSoC4/UART_Pi_UART.c **** void UART_Pi_UartPostEnable(void)
 318:Generated_Source\PSoC4/UART_Pi_UART.c **** {
 155              		.loc 1 318 0
 156              		.cfi_startproc
 157              		@ args = 0, pretend = 0, frame = 0
 158              		@ frame_needed = 1, uses_anonymous_args = 0
 159 0000 80B5     		push	{r7, lr}
 160              		.cfi_def_cfa_offset 8
 161              		.cfi_offset 7, -8
 162              		.cfi_offset 14, -4
 163 0002 00AF     		add	r7, sp, #0
 164              		.cfi_def_cfa_register 7
 319:Generated_Source\PSoC4/UART_Pi_UART.c **** #if (UART_Pi_SCB_MODE_UNCONFIG_CONST_CFG)
 320:Generated_Source\PSoC4/UART_Pi_UART.c ****     #if (UART_Pi_TX_SDA_MISO_PIN)
 321:Generated_Source\PSoC4/UART_Pi_UART.c ****         if (UART_Pi_CHECK_TX_SDA_MISO_PIN_USED)
 322:Generated_Source\PSoC4/UART_Pi_UART.c ****         {
 323:Generated_Source\PSoC4/UART_Pi_UART.c ****             /* Set SCB UART to drive the output pin */
 324:Generated_Source\PSoC4/UART_Pi_UART.c ****             UART_Pi_SET_HSIOM_SEL(UART_Pi_TX_SDA_MISO_HSIOM_REG, UART_Pi_TX_SDA_MISO_HSIOM_MASK,
 325:Generated_Source\PSoC4/UART_Pi_UART.c ****                                            UART_Pi_TX_SDA_MISO_HSIOM_POS, UART_Pi_TX_SDA_MISO_HSIOM
 326:Generated_Source\PSoC4/UART_Pi_UART.c ****         }
 327:Generated_Source\PSoC4/UART_Pi_UART.c ****     #endif /* (UART_Pi_TX_SDA_MISO_PIN_PIN) */
 328:Generated_Source\PSoC4/UART_Pi_UART.c **** 
 329:Generated_Source\PSoC4/UART_Pi_UART.c ****     #if !(UART_Pi_CY_SCBIP_V0 || UART_Pi_CY_SCBIP_V1)
 330:Generated_Source\PSoC4/UART_Pi_UART.c ****         #if (UART_Pi_SS0_PIN)
 331:Generated_Source\PSoC4/UART_Pi_UART.c ****             if (UART_Pi_CHECK_SS0_PIN_USED)
 332:Generated_Source\PSoC4/UART_Pi_UART.c ****             {
 333:Generated_Source\PSoC4/UART_Pi_UART.c ****                 /* Set SCB UART to drive the output pin */
 334:Generated_Source\PSoC4/UART_Pi_UART.c ****                 UART_Pi_SET_HSIOM_SEL(UART_Pi_SS0_HSIOM_REG, UART_Pi_SS0_HSIOM_MASK,
 335:Generated_Source\PSoC4/UART_Pi_UART.c ****                                                UART_Pi_SS0_HSIOM_POS, UART_Pi_SS0_HSIOM_SEL_UART);
 336:Generated_Source\PSoC4/UART_Pi_UART.c ****             }
 337:Generated_Source\PSoC4/UART_Pi_UART.c ****         #endif /* (UART_Pi_SS0_PIN) */
 338:Generated_Source\PSoC4/UART_Pi_UART.c ****     #endif /* !(UART_Pi_CY_SCBIP_V0 || UART_Pi_CY_SCBIP_V1) */
 339:Generated_Source\PSoC4/UART_Pi_UART.c **** 
 340:Generated_Source\PSoC4/UART_Pi_UART.c **** #else
 341:Generated_Source\PSoC4/UART_Pi_UART.c ****     #if (UART_Pi_UART_TX_PIN)
 342:Generated_Source\PSoC4/UART_Pi_UART.c ****          /* Set SCB UART to drive the output pin */
 343:Generated_Source\PSoC4/UART_Pi_UART.c ****         UART_Pi_SET_HSIOM_SEL(UART_Pi_TX_HSIOM_REG, UART_Pi_TX_HSIOM_MASK,
 165              		.loc 1 343 0
 166 0004 074B     		ldr	r3, .L5
 167 0006 074A     		ldr	r2, .L5
 168 0008 1268     		ldr	r2, [r2]
 169 000a F021     		movs	r1, #240
 170 000c 8A43     		bics	r2, r1
ARM GAS  C:\Users\ANDRES~1\AppData\Local\Temp\ccmr0GAP.s 			page 10


 171 000e 9021     		movs	r1, #144
 172 0010 0A43     		orrs	r2, r1
 173 0012 1A60     		str	r2, [r3]
 344:Generated_Source\PSoC4/UART_Pi_UART.c ****                                        UART_Pi_TX_HSIOM_POS, UART_Pi_TX_HSIOM_SEL_UART);
 345:Generated_Source\PSoC4/UART_Pi_UART.c ****     #endif /* (UART_Pi_UART_TX_PIN) */
 346:Generated_Source\PSoC4/UART_Pi_UART.c **** 
 347:Generated_Source\PSoC4/UART_Pi_UART.c ****     #if (UART_Pi_UART_RTS_PIN)
 348:Generated_Source\PSoC4/UART_Pi_UART.c ****         /* Set SCB UART to drive the output pin */
 349:Generated_Source\PSoC4/UART_Pi_UART.c ****         UART_Pi_SET_HSIOM_SEL(UART_Pi_RTS_HSIOM_REG, UART_Pi_RTS_HSIOM_MASK,
 350:Generated_Source\PSoC4/UART_Pi_UART.c ****                                        UART_Pi_RTS_HSIOM_POS, UART_Pi_RTS_HSIOM_SEL_UART);
 351:Generated_Source\PSoC4/UART_Pi_UART.c ****     #endif /* (UART_Pi_UART_RTS_PIN) */
 352:Generated_Source\PSoC4/UART_Pi_UART.c **** #endif /* (UART_Pi_SCB_MODE_UNCONFIG_CONST_CFG) */
 353:Generated_Source\PSoC4/UART_Pi_UART.c **** 
 354:Generated_Source\PSoC4/UART_Pi_UART.c ****     /* Restore TX interrupt sources. */
 355:Generated_Source\PSoC4/UART_Pi_UART.c ****     UART_Pi_SetTxInterruptMode(UART_Pi_IntrTxMask);
 174              		.loc 1 355 0
 175 0014 044B     		ldr	r3, .L5+4
 176 0016 054A     		ldr	r2, .L5+8
 177 0018 1288     		ldrh	r2, [r2]
 178 001a 1A60     		str	r2, [r3]
 356:Generated_Source\PSoC4/UART_Pi_UART.c **** }
 179              		.loc 1 356 0
 180 001c C046     		nop
 181 001e BD46     		mov	sp, r7
 182              		@ sp needed
 183 0020 80BD     		pop	{r7, pc}
 184              	.L6:
 185 0022 C046     		.align	2
 186              	.L5:
 187 0024 0C000140 		.word	1073807372
 188 0028 880F0740 		.word	1074204552
 189 002c 00000000 		.word	UART_Pi_IntrTxMask
 190              		.cfi_endproc
 191              	.LFE1:
 192              		.size	UART_Pi_UartPostEnable, .-UART_Pi_UartPostEnable
 193              		.section	.text.UART_Pi_UartStop,"ax",%progbits
 194              		.align	2
 195              		.global	UART_Pi_UartStop
 196              		.code	16
 197              		.thumb_func
 198              		.type	UART_Pi_UartStop, %function
 199              	UART_Pi_UartStop:
 200              	.LFB2:
 357:Generated_Source\PSoC4/UART_Pi_UART.c **** 
 358:Generated_Source\PSoC4/UART_Pi_UART.c **** 
 359:Generated_Source\PSoC4/UART_Pi_UART.c **** /*******************************************************************************
 360:Generated_Source\PSoC4/UART_Pi_UART.c **** * Function Name: UART_Pi_UartStop
 361:Generated_Source\PSoC4/UART_Pi_UART.c **** ****************************************************************************//**
 362:Generated_Source\PSoC4/UART_Pi_UART.c **** *
 363:Generated_Source\PSoC4/UART_Pi_UART.c **** *  Changes the HSIOM settings for the UART output pins (TX and/or RTS) to keep
 364:Generated_Source\PSoC4/UART_Pi_UART.c **** *  them inactive after the block is disabled. The output pins are controlled by
 365:Generated_Source\PSoC4/UART_Pi_UART.c **** *  the GPIO data register. Also, the function disables the skip start feature
 366:Generated_Source\PSoC4/UART_Pi_UART.c **** *  to not cause it to trigger after the component is enabled.
 367:Generated_Source\PSoC4/UART_Pi_UART.c **** *
 368:Generated_Source\PSoC4/UART_Pi_UART.c **** *******************************************************************************/
 369:Generated_Source\PSoC4/UART_Pi_UART.c **** void UART_Pi_UartStop(void)
 370:Generated_Source\PSoC4/UART_Pi_UART.c **** {
ARM GAS  C:\Users\ANDRES~1\AppData\Local\Temp\ccmr0GAP.s 			page 11


 201              		.loc 1 370 0
 202              		.cfi_startproc
 203              		@ args = 0, pretend = 0, frame = 0
 204              		@ frame_needed = 1, uses_anonymous_args = 0
 205 0000 80B5     		push	{r7, lr}
 206              		.cfi_def_cfa_offset 8
 207              		.cfi_offset 7, -8
 208              		.cfi_offset 14, -4
 209 0002 00AF     		add	r7, sp, #0
 210              		.cfi_def_cfa_register 7
 371:Generated_Source\PSoC4/UART_Pi_UART.c **** #if(UART_Pi_SCB_MODE_UNCONFIG_CONST_CFG)
 372:Generated_Source\PSoC4/UART_Pi_UART.c ****     #if (UART_Pi_TX_SDA_MISO_PIN)
 373:Generated_Source\PSoC4/UART_Pi_UART.c ****         if (UART_Pi_CHECK_TX_SDA_MISO_PIN_USED)
 374:Generated_Source\PSoC4/UART_Pi_UART.c ****         {
 375:Generated_Source\PSoC4/UART_Pi_UART.c ****             /* Set GPIO to drive output pin */
 376:Generated_Source\PSoC4/UART_Pi_UART.c ****             UART_Pi_SET_HSIOM_SEL(UART_Pi_TX_SDA_MISO_HSIOM_REG, UART_Pi_TX_SDA_MISO_HSIOM_MASK,
 377:Generated_Source\PSoC4/UART_Pi_UART.c ****                                            UART_Pi_TX_SDA_MISO_HSIOM_POS, UART_Pi_TX_SDA_MISO_HSIOM
 378:Generated_Source\PSoC4/UART_Pi_UART.c ****         }
 379:Generated_Source\PSoC4/UART_Pi_UART.c ****     #endif /* (UART_Pi_TX_SDA_MISO_PIN_PIN) */
 380:Generated_Source\PSoC4/UART_Pi_UART.c **** 
 381:Generated_Source\PSoC4/UART_Pi_UART.c ****     #if !(UART_Pi_CY_SCBIP_V0 || UART_Pi_CY_SCBIP_V1)
 382:Generated_Source\PSoC4/UART_Pi_UART.c ****         #if (UART_Pi_SS0_PIN)
 383:Generated_Source\PSoC4/UART_Pi_UART.c ****             if (UART_Pi_CHECK_SS0_PIN_USED)
 384:Generated_Source\PSoC4/UART_Pi_UART.c ****             {
 385:Generated_Source\PSoC4/UART_Pi_UART.c ****                 /* Set output pin state after block is disabled */
 386:Generated_Source\PSoC4/UART_Pi_UART.c ****                 UART_Pi_spi_ss0_Write(UART_Pi_GET_UART_RTS_INACTIVE);
 387:Generated_Source\PSoC4/UART_Pi_UART.c **** 
 388:Generated_Source\PSoC4/UART_Pi_UART.c ****                 /* Set GPIO to drive output pin */
 389:Generated_Source\PSoC4/UART_Pi_UART.c ****                 UART_Pi_SET_HSIOM_SEL(UART_Pi_SS0_HSIOM_REG, UART_Pi_SS0_HSIOM_MASK,
 390:Generated_Source\PSoC4/UART_Pi_UART.c ****                                                UART_Pi_SS0_HSIOM_POS, UART_Pi_SS0_HSIOM_SEL_GPIO);
 391:Generated_Source\PSoC4/UART_Pi_UART.c ****             }
 392:Generated_Source\PSoC4/UART_Pi_UART.c ****         #endif /* (UART_Pi_SS0_PIN) */
 393:Generated_Source\PSoC4/UART_Pi_UART.c ****     #endif /* !(UART_Pi_CY_SCBIP_V0 || UART_Pi_CY_SCBIP_V1) */
 394:Generated_Source\PSoC4/UART_Pi_UART.c **** 
 395:Generated_Source\PSoC4/UART_Pi_UART.c **** #else
 396:Generated_Source\PSoC4/UART_Pi_UART.c ****     #if (UART_Pi_UART_TX_PIN)
 397:Generated_Source\PSoC4/UART_Pi_UART.c ****         /* Set GPIO to drive output pin */
 398:Generated_Source\PSoC4/UART_Pi_UART.c ****         UART_Pi_SET_HSIOM_SEL(UART_Pi_TX_HSIOM_REG, UART_Pi_TX_HSIOM_MASK,
 211              		.loc 1 398 0
 212 0004 084B     		ldr	r3, .L8
 213 0006 084A     		ldr	r2, .L8
 214 0008 1268     		ldr	r2, [r2]
 215 000a F021     		movs	r1, #240
 216 000c 8A43     		bics	r2, r1
 217 000e 1A60     		str	r2, [r3]
 399:Generated_Source\PSoC4/UART_Pi_UART.c ****                                        UART_Pi_TX_HSIOM_POS, UART_Pi_TX_HSIOM_SEL_GPIO);
 400:Generated_Source\PSoC4/UART_Pi_UART.c ****     #endif /* (UART_Pi_UART_TX_PIN) */
 401:Generated_Source\PSoC4/UART_Pi_UART.c **** 
 402:Generated_Source\PSoC4/UART_Pi_UART.c ****     #if (UART_Pi_UART_RTS_PIN)
 403:Generated_Source\PSoC4/UART_Pi_UART.c ****         /* Set output pin state after block is disabled */
 404:Generated_Source\PSoC4/UART_Pi_UART.c ****         UART_Pi_rts_Write(UART_Pi_GET_UART_RTS_INACTIVE);
 405:Generated_Source\PSoC4/UART_Pi_UART.c **** 
 406:Generated_Source\PSoC4/UART_Pi_UART.c ****         /* Set GPIO to drive output pin */
 407:Generated_Source\PSoC4/UART_Pi_UART.c ****         UART_Pi_SET_HSIOM_SEL(UART_Pi_RTS_HSIOM_REG, UART_Pi_RTS_HSIOM_MASK,
 408:Generated_Source\PSoC4/UART_Pi_UART.c ****                                        UART_Pi_RTS_HSIOM_POS, UART_Pi_RTS_HSIOM_SEL_GPIO);
 409:Generated_Source\PSoC4/UART_Pi_UART.c ****     #endif /* (UART_Pi_UART_RTS_PIN) */
 410:Generated_Source\PSoC4/UART_Pi_UART.c **** 
ARM GAS  C:\Users\ANDRES~1\AppData\Local\Temp\ccmr0GAP.s 			page 12


 411:Generated_Source\PSoC4/UART_Pi_UART.c **** #endif /* (UART_Pi_SCB_MODE_UNCONFIG_CONST_CFG) */
 412:Generated_Source\PSoC4/UART_Pi_UART.c **** 
 413:Generated_Source\PSoC4/UART_Pi_UART.c **** #if (UART_Pi_UART_WAKE_ENABLE_CONST)
 414:Generated_Source\PSoC4/UART_Pi_UART.c ****     /* Disable skip start feature used for wakeup */
 415:Generated_Source\PSoC4/UART_Pi_UART.c ****     UART_Pi_UART_RX_CTRL_REG &= (uint32) ~UART_Pi_UART_RX_CTRL_SKIP_START;
 416:Generated_Source\PSoC4/UART_Pi_UART.c **** #endif /* (UART_Pi_UART_WAKE_ENABLE_CONST) */
 417:Generated_Source\PSoC4/UART_Pi_UART.c **** 
 418:Generated_Source\PSoC4/UART_Pi_UART.c ****     /* Store TX interrupt sources (exclude level triggered). */
 419:Generated_Source\PSoC4/UART_Pi_UART.c ****     UART_Pi_IntrTxMask = LO16(UART_Pi_GetTxInterruptMode() & UART_Pi_INTR_UART_TX_RESTORE);
 218              		.loc 1 419 0
 219 0010 064B     		ldr	r3, .L8+4
 220 0012 1B68     		ldr	r3, [r3]
 221 0014 9AB2     		uxth	r2, r3
 222 0016 E423     		movs	r3, #228
 223 0018 DB00     		lsls	r3, r3, #3
 224 001a 1340     		ands	r3, r2
 225 001c 9AB2     		uxth	r2, r3
 226 001e 044B     		ldr	r3, .L8+8
 227 0020 1A80     		strh	r2, [r3]
 420:Generated_Source\PSoC4/UART_Pi_UART.c **** }
 228              		.loc 1 420 0
 229 0022 C046     		nop
 230 0024 BD46     		mov	sp, r7
 231              		@ sp needed
 232 0026 80BD     		pop	{r7, pc}
 233              	.L9:
 234              		.align	2
 235              	.L8:
 236 0028 0C000140 		.word	1073807372
 237 002c 880F0740 		.word	1074204552
 238 0030 00000000 		.word	UART_Pi_IntrTxMask
 239              		.cfi_endproc
 240              	.LFE2:
 241              		.size	UART_Pi_UartStop, .-UART_Pi_UartStop
 242              		.section	.text.UART_Pi_UartSetRxAddress,"ax",%progbits
 243              		.align	2
 244              		.global	UART_Pi_UartSetRxAddress
 245              		.code	16
 246              		.thumb_func
 247              		.type	UART_Pi_UartSetRxAddress, %function
 248              	UART_Pi_UartSetRxAddress:
 249              	.LFB3:
 421:Generated_Source\PSoC4/UART_Pi_UART.c **** 
 422:Generated_Source\PSoC4/UART_Pi_UART.c **** 
 423:Generated_Source\PSoC4/UART_Pi_UART.c **** /*******************************************************************************
 424:Generated_Source\PSoC4/UART_Pi_UART.c **** * Function Name: UART_Pi_UartSetRxAddress
 425:Generated_Source\PSoC4/UART_Pi_UART.c **** ****************************************************************************//**
 426:Generated_Source\PSoC4/UART_Pi_UART.c **** *
 427:Generated_Source\PSoC4/UART_Pi_UART.c **** *  Sets the hardware detectable receiver address for the UART in the
 428:Generated_Source\PSoC4/UART_Pi_UART.c **** *  Multiprocessor mode.
 429:Generated_Source\PSoC4/UART_Pi_UART.c **** *
 430:Generated_Source\PSoC4/UART_Pi_UART.c **** *  \param address: Address for hardware address detection.
 431:Generated_Source\PSoC4/UART_Pi_UART.c **** *
 432:Generated_Source\PSoC4/UART_Pi_UART.c **** *******************************************************************************/
 433:Generated_Source\PSoC4/UART_Pi_UART.c **** void UART_Pi_UartSetRxAddress(uint32 address)
 434:Generated_Source\PSoC4/UART_Pi_UART.c **** {
 250              		.loc 1 434 0
ARM GAS  C:\Users\ANDRES~1\AppData\Local\Temp\ccmr0GAP.s 			page 13


 251              		.cfi_startproc
 252              		@ args = 0, pretend = 0, frame = 16
 253              		@ frame_needed = 1, uses_anonymous_args = 0
 254 0000 80B5     		push	{r7, lr}
 255              		.cfi_def_cfa_offset 8
 256              		.cfi_offset 7, -8
 257              		.cfi_offset 14, -4
 258 0002 84B0     		sub	sp, sp, #16
 259              		.cfi_def_cfa_offset 24
 260 0004 00AF     		add	r7, sp, #0
 261              		.cfi_def_cfa_register 7
 262 0006 7860     		str	r0, [r7, #4]
 435:Generated_Source\PSoC4/UART_Pi_UART.c ****      uint32 matchReg;
 436:Generated_Source\PSoC4/UART_Pi_UART.c **** 
 437:Generated_Source\PSoC4/UART_Pi_UART.c ****     matchReg = UART_Pi_RX_MATCH_REG;
 263              		.loc 1 437 0
 264 0008 094B     		ldr	r3, .L11
 265 000a 1B68     		ldr	r3, [r3]
 266 000c FB60     		str	r3, [r7, #12]
 438:Generated_Source\PSoC4/UART_Pi_UART.c **** 
 439:Generated_Source\PSoC4/UART_Pi_UART.c ****     matchReg &= ((uint32) ~UART_Pi_RX_MATCH_ADDR_MASK); /* Clear address bits */
 267              		.loc 1 439 0
 268 000e FB68     		ldr	r3, [r7, #12]
 269 0010 FF22     		movs	r2, #255
 270 0012 9343     		bics	r3, r2
 271 0014 FB60     		str	r3, [r7, #12]
 440:Generated_Source\PSoC4/UART_Pi_UART.c ****     matchReg |= ((uint32)  (address & UART_Pi_RX_MATCH_ADDR_MASK)); /* Set address  */
 272              		.loc 1 440 0
 273 0016 7B68     		ldr	r3, [r7, #4]
 274 0018 FF22     		movs	r2, #255
 275 001a 1340     		ands	r3, r2
 276 001c FA68     		ldr	r2, [r7, #12]
 277 001e 1343     		orrs	r3, r2
 278 0020 FB60     		str	r3, [r7, #12]
 441:Generated_Source\PSoC4/UART_Pi_UART.c **** 
 442:Generated_Source\PSoC4/UART_Pi_UART.c ****     UART_Pi_RX_MATCH_REG = matchReg;
 279              		.loc 1 442 0
 280 0022 034B     		ldr	r3, .L11
 281 0024 FA68     		ldr	r2, [r7, #12]
 282 0026 1A60     		str	r2, [r3]
 443:Generated_Source\PSoC4/UART_Pi_UART.c **** }
 283              		.loc 1 443 0
 284 0028 C046     		nop
 285 002a BD46     		mov	sp, r7
 286 002c 04B0     		add	sp, sp, #16
 287              		@ sp needed
 288 002e 80BD     		pop	{r7, pc}
 289              	.L12:
 290              		.align	2
 291              	.L11:
 292 0030 10030740 		.word	1074201360
 293              		.cfi_endproc
 294              	.LFE3:
 295              		.size	UART_Pi_UartSetRxAddress, .-UART_Pi_UartSetRxAddress
 296              		.section	.text.UART_Pi_UartSetRxAddressMask,"ax",%progbits
 297              		.align	2
 298              		.global	UART_Pi_UartSetRxAddressMask
ARM GAS  C:\Users\ANDRES~1\AppData\Local\Temp\ccmr0GAP.s 			page 14


 299              		.code	16
 300              		.thumb_func
 301              		.type	UART_Pi_UartSetRxAddressMask, %function
 302              	UART_Pi_UartSetRxAddressMask:
 303              	.LFB4:
 444:Generated_Source\PSoC4/UART_Pi_UART.c **** 
 445:Generated_Source\PSoC4/UART_Pi_UART.c **** 
 446:Generated_Source\PSoC4/UART_Pi_UART.c **** /*******************************************************************************
 447:Generated_Source\PSoC4/UART_Pi_UART.c **** * Function Name: UART_Pi_UartSetRxAddressMask
 448:Generated_Source\PSoC4/UART_Pi_UART.c **** ****************************************************************************//**
 449:Generated_Source\PSoC4/UART_Pi_UART.c **** *
 450:Generated_Source\PSoC4/UART_Pi_UART.c **** *  Sets the hardware address mask for the UART in the Multiprocessor mode.
 451:Generated_Source\PSoC4/UART_Pi_UART.c **** *
 452:Generated_Source\PSoC4/UART_Pi_UART.c **** *  \param addressMask: Address mask.
 453:Generated_Source\PSoC4/UART_Pi_UART.c **** *   - Bit value 0 – excludes bit from address comparison.
 454:Generated_Source\PSoC4/UART_Pi_UART.c **** *   - Bit value 1 – the bit needs to match with the corresponding bit
 455:Generated_Source\PSoC4/UART_Pi_UART.c **** *     of the address.
 456:Generated_Source\PSoC4/UART_Pi_UART.c **** *
 457:Generated_Source\PSoC4/UART_Pi_UART.c **** *******************************************************************************/
 458:Generated_Source\PSoC4/UART_Pi_UART.c **** void UART_Pi_UartSetRxAddressMask(uint32 addressMask)
 459:Generated_Source\PSoC4/UART_Pi_UART.c **** {
 304              		.loc 1 459 0
 305              		.cfi_startproc
 306              		@ args = 0, pretend = 0, frame = 16
 307              		@ frame_needed = 1, uses_anonymous_args = 0
 308 0000 80B5     		push	{r7, lr}
 309              		.cfi_def_cfa_offset 8
 310              		.cfi_offset 7, -8
 311              		.cfi_offset 14, -4
 312 0002 84B0     		sub	sp, sp, #16
 313              		.cfi_def_cfa_offset 24
 314 0004 00AF     		add	r7, sp, #0
 315              		.cfi_def_cfa_register 7
 316 0006 7860     		str	r0, [r7, #4]
 460:Generated_Source\PSoC4/UART_Pi_UART.c ****     uint32 matchReg;
 461:Generated_Source\PSoC4/UART_Pi_UART.c **** 
 462:Generated_Source\PSoC4/UART_Pi_UART.c ****     matchReg = UART_Pi_RX_MATCH_REG;
 317              		.loc 1 462 0
 318 0008 094B     		ldr	r3, .L14
 319 000a 1B68     		ldr	r3, [r3]
 320 000c FB60     		str	r3, [r7, #12]
 463:Generated_Source\PSoC4/UART_Pi_UART.c **** 
 464:Generated_Source\PSoC4/UART_Pi_UART.c ****     matchReg &= ((uint32) ~UART_Pi_RX_MATCH_MASK_MASK); /* Clear address mask bits */
 321              		.loc 1 464 0
 322 000e FB68     		ldr	r3, [r7, #12]
 323 0010 084A     		ldr	r2, .L14+4
 324 0012 1340     		ands	r3, r2
 325 0014 FB60     		str	r3, [r7, #12]
 465:Generated_Source\PSoC4/UART_Pi_UART.c ****     matchReg |= ((uint32) (addressMask << UART_Pi_RX_MATCH_MASK_POS));
 326              		.loc 1 465 0
 327 0016 7B68     		ldr	r3, [r7, #4]
 328 0018 1B04     		lsls	r3, r3, #16
 329 001a FA68     		ldr	r2, [r7, #12]
 330 001c 1343     		orrs	r3, r2
 331 001e FB60     		str	r3, [r7, #12]
 466:Generated_Source\PSoC4/UART_Pi_UART.c **** 
 467:Generated_Source\PSoC4/UART_Pi_UART.c ****     UART_Pi_RX_MATCH_REG = matchReg;
ARM GAS  C:\Users\ANDRES~1\AppData\Local\Temp\ccmr0GAP.s 			page 15


 332              		.loc 1 467 0
 333 0020 034B     		ldr	r3, .L14
 334 0022 FA68     		ldr	r2, [r7, #12]
 335 0024 1A60     		str	r2, [r3]
 468:Generated_Source\PSoC4/UART_Pi_UART.c **** }
 336              		.loc 1 468 0
 337 0026 C046     		nop
 338 0028 BD46     		mov	sp, r7
 339 002a 04B0     		add	sp, sp, #16
 340              		@ sp needed
 341 002c 80BD     		pop	{r7, pc}
 342              	.L15:
 343 002e C046     		.align	2
 344              	.L14:
 345 0030 10030740 		.word	1074201360
 346 0034 FFFF00FF 		.word	-16711681
 347              		.cfi_endproc
 348              	.LFE4:
 349              		.size	UART_Pi_UartSetRxAddressMask, .-UART_Pi_UartSetRxAddressMask
 350              		.section	.text.UART_Pi_UartGetChar,"ax",%progbits
 351              		.align	2
 352              		.global	UART_Pi_UartGetChar
 353              		.code	16
 354              		.thumb_func
 355              		.type	UART_Pi_UartGetChar, %function
 356              	UART_Pi_UartGetChar:
 357              	.LFB5:
 469:Generated_Source\PSoC4/UART_Pi_UART.c **** 
 470:Generated_Source\PSoC4/UART_Pi_UART.c **** 
 471:Generated_Source\PSoC4/UART_Pi_UART.c **** #if(UART_Pi_UART_RX_DIRECTION)
 472:Generated_Source\PSoC4/UART_Pi_UART.c ****     /*******************************************************************************
 473:Generated_Source\PSoC4/UART_Pi_UART.c ****     * Function Name: UART_Pi_UartGetChar
 474:Generated_Source\PSoC4/UART_Pi_UART.c ****     ****************************************************************************//**
 475:Generated_Source\PSoC4/UART_Pi_UART.c ****     *
 476:Generated_Source\PSoC4/UART_Pi_UART.c ****     *  Retrieves next data element from receive buffer.
 477:Generated_Source\PSoC4/UART_Pi_UART.c ****     *  This function is designed for ASCII characters and returns a char where
 478:Generated_Source\PSoC4/UART_Pi_UART.c ****     *  1 to 255 are valid characters and 0 indicates an error occurred or no data
 479:Generated_Source\PSoC4/UART_Pi_UART.c ****     *  is present.
 480:Generated_Source\PSoC4/UART_Pi_UART.c ****     *  - RX software buffer is disabled: Returns data element retrieved from RX
 481:Generated_Source\PSoC4/UART_Pi_UART.c ****     *    FIFO.
 482:Generated_Source\PSoC4/UART_Pi_UART.c ****     *  - RX software buffer is enabled: Returns data element from the software
 483:Generated_Source\PSoC4/UART_Pi_UART.c ****     *    receive buffer.
 484:Generated_Source\PSoC4/UART_Pi_UART.c ****     *
 485:Generated_Source\PSoC4/UART_Pi_UART.c ****     *  \return
 486:Generated_Source\PSoC4/UART_Pi_UART.c ****     *   Next data element from the receive buffer. ASCII character values from
 487:Generated_Source\PSoC4/UART_Pi_UART.c ****     *   1 to 255 are valid. A returned zero signifies an error condition or no
 488:Generated_Source\PSoC4/UART_Pi_UART.c ****     *   data available.
 489:Generated_Source\PSoC4/UART_Pi_UART.c ****     *
 490:Generated_Source\PSoC4/UART_Pi_UART.c ****     *  \sideeffect
 491:Generated_Source\PSoC4/UART_Pi_UART.c ****     *   The errors bits may not correspond with reading characters due to
 492:Generated_Source\PSoC4/UART_Pi_UART.c ****     *   RX FIFO and software buffer usage.
 493:Generated_Source\PSoC4/UART_Pi_UART.c ****     *   RX software buffer is enabled: The internal software buffer overflow
 494:Generated_Source\PSoC4/UART_Pi_UART.c ****     *   is not treated as an error condition.
 495:Generated_Source\PSoC4/UART_Pi_UART.c ****     *   Check UART_Pi_rxBufferOverflow to capture that error condition.
 496:Generated_Source\PSoC4/UART_Pi_UART.c ****     *
 497:Generated_Source\PSoC4/UART_Pi_UART.c ****     *******************************************************************************/
 498:Generated_Source\PSoC4/UART_Pi_UART.c ****     uint32 UART_Pi_UartGetChar(void)
ARM GAS  C:\Users\ANDRES~1\AppData\Local\Temp\ccmr0GAP.s 			page 16


 499:Generated_Source\PSoC4/UART_Pi_UART.c ****     {
 358              		.loc 1 499 0
 359              		.cfi_startproc
 360              		@ args = 0, pretend = 0, frame = 8
 361              		@ frame_needed = 1, uses_anonymous_args = 0
 362 0000 80B5     		push	{r7, lr}
 363              		.cfi_def_cfa_offset 8
 364              		.cfi_offset 7, -8
 365              		.cfi_offset 14, -4
 366 0002 82B0     		sub	sp, sp, #8
 367              		.cfi_def_cfa_offset 16
 368 0004 00AF     		add	r7, sp, #0
 369              		.cfi_def_cfa_register 7
 500:Generated_Source\PSoC4/UART_Pi_UART.c ****         uint32 rxData = 0u;
 370              		.loc 1 500 0
 371 0006 0023     		movs	r3, #0
 372 0008 7B60     		str	r3, [r7, #4]
 501:Generated_Source\PSoC4/UART_Pi_UART.c **** 
 502:Generated_Source\PSoC4/UART_Pi_UART.c ****         /* Reads data only if there is data to read */
 503:Generated_Source\PSoC4/UART_Pi_UART.c ****         if (0u != UART_Pi_SpiUartGetRxBufferSize())
 373              		.loc 1 503 0
 374 000a FFF7FEFF 		bl	UART_Pi_SpiUartGetRxBufferSize
 375 000e 031E     		subs	r3, r0, #0
 376 0010 03D0     		beq	.L17
 504:Generated_Source\PSoC4/UART_Pi_UART.c ****         {
 505:Generated_Source\PSoC4/UART_Pi_UART.c ****             rxData = UART_Pi_SpiUartReadRxData();
 377              		.loc 1 505 0
 378 0012 FFF7FEFF 		bl	UART_Pi_SpiUartReadRxData
 379 0016 0300     		movs	r3, r0
 380 0018 7B60     		str	r3, [r7, #4]
 381              	.L17:
 506:Generated_Source\PSoC4/UART_Pi_UART.c ****         }
 507:Generated_Source\PSoC4/UART_Pi_UART.c **** 
 508:Generated_Source\PSoC4/UART_Pi_UART.c ****         if (UART_Pi_CHECK_INTR_RX(UART_Pi_INTR_RX_ERR))
 382              		.loc 1 508 0
 383 001a 084B     		ldr	r3, .L20
 384 001c 1A68     		ldr	r2, [r3]
 385 001e D823     		movs	r3, #216
 386 0020 9B00     		lsls	r3, r3, #2
 387 0022 1340     		ands	r3, r2
 388 0024 05D0     		beq	.L18
 509:Generated_Source\PSoC4/UART_Pi_UART.c ****         {
 510:Generated_Source\PSoC4/UART_Pi_UART.c ****             rxData = 0u; /* Error occurred: returns zero */
 389              		.loc 1 510 0
 390 0026 0023     		movs	r3, #0
 391 0028 7B60     		str	r3, [r7, #4]
 511:Generated_Source\PSoC4/UART_Pi_UART.c ****             UART_Pi_ClearRxInterruptSource(UART_Pi_INTR_RX_ERR);
 392              		.loc 1 511 0
 393 002a 044B     		ldr	r3, .L20
 394 002c D822     		movs	r2, #216
 395 002e 9200     		lsls	r2, r2, #2
 396 0030 1A60     		str	r2, [r3]
 397              	.L18:
 512:Generated_Source\PSoC4/UART_Pi_UART.c ****         }
 513:Generated_Source\PSoC4/UART_Pi_UART.c **** 
 514:Generated_Source\PSoC4/UART_Pi_UART.c ****         return (rxData);
 398              		.loc 1 514 0
ARM GAS  C:\Users\ANDRES~1\AppData\Local\Temp\ccmr0GAP.s 			page 17


 399 0032 7B68     		ldr	r3, [r7, #4]
 515:Generated_Source\PSoC4/UART_Pi_UART.c ****     }
 400              		.loc 1 515 0
 401 0034 1800     		movs	r0, r3
 402 0036 BD46     		mov	sp, r7
 403 0038 02B0     		add	sp, sp, #8
 404              		@ sp needed
 405 003a 80BD     		pop	{r7, pc}
 406              	.L21:
 407              		.align	2
 408              	.L20:
 409 003c C00F0740 		.word	1074204608
 410              		.cfi_endproc
 411              	.LFE5:
 412              		.size	UART_Pi_UartGetChar, .-UART_Pi_UartGetChar
 413              		.section	.text.UART_Pi_UartGetByte,"ax",%progbits
 414              		.align	2
 415              		.global	UART_Pi_UartGetByte
 416              		.code	16
 417              		.thumb_func
 418              		.type	UART_Pi_UartGetByte, %function
 419              	UART_Pi_UartGetByte:
 420              	.LFB6:
 516:Generated_Source\PSoC4/UART_Pi_UART.c **** 
 517:Generated_Source\PSoC4/UART_Pi_UART.c **** 
 518:Generated_Source\PSoC4/UART_Pi_UART.c ****     /*******************************************************************************
 519:Generated_Source\PSoC4/UART_Pi_UART.c ****     * Function Name: UART_Pi_UartGetByte
 520:Generated_Source\PSoC4/UART_Pi_UART.c ****     ****************************************************************************//**
 521:Generated_Source\PSoC4/UART_Pi_UART.c ****     *
 522:Generated_Source\PSoC4/UART_Pi_UART.c ****     *  Retrieves the next data element from the receive buffer, returns the
 523:Generated_Source\PSoC4/UART_Pi_UART.c ****     *  received byte and error condition.
 524:Generated_Source\PSoC4/UART_Pi_UART.c ****     *   - The RX software buffer is disabled: returns the data element retrieved
 525:Generated_Source\PSoC4/UART_Pi_UART.c ****     *     from the RX FIFO. Undefined data will be returned if the RX FIFO is
 526:Generated_Source\PSoC4/UART_Pi_UART.c ****     *     empty.
 527:Generated_Source\PSoC4/UART_Pi_UART.c ****     *   - The RX software buffer is enabled: returns data element from the
 528:Generated_Source\PSoC4/UART_Pi_UART.c ****     *     software receive buffer.
 529:Generated_Source\PSoC4/UART_Pi_UART.c ****     *
 530:Generated_Source\PSoC4/UART_Pi_UART.c ****     *  \return
 531:Generated_Source\PSoC4/UART_Pi_UART.c ****     *   Bits 7-0 contain the next data element from the receive buffer and
 532:Generated_Source\PSoC4/UART_Pi_UART.c ****     *   other bits contain the error condition.
 533:Generated_Source\PSoC4/UART_Pi_UART.c ****     *   - UART_Pi_UART_RX_OVERFLOW - Attempt to write to a full
 534:Generated_Source\PSoC4/UART_Pi_UART.c ****     *     receiver FIFO.
 535:Generated_Source\PSoC4/UART_Pi_UART.c ****     *   - UART_Pi_UART_RX_UNDERFLOW    Attempt to read from an empty
 536:Generated_Source\PSoC4/UART_Pi_UART.c ****     *     receiver FIFO.
 537:Generated_Source\PSoC4/UART_Pi_UART.c ****     *   - UART_Pi_UART_RX_FRAME_ERROR - UART framing error detected.
 538:Generated_Source\PSoC4/UART_Pi_UART.c ****     *   - UART_Pi_UART_RX_PARITY_ERROR - UART parity error detected.
 539:Generated_Source\PSoC4/UART_Pi_UART.c ****     *
 540:Generated_Source\PSoC4/UART_Pi_UART.c ****     *  \sideeffect
 541:Generated_Source\PSoC4/UART_Pi_UART.c ****     *   The errors bits may not correspond with reading characters due to
 542:Generated_Source\PSoC4/UART_Pi_UART.c ****     *   RX FIFO and software buffer usage.
 543:Generated_Source\PSoC4/UART_Pi_UART.c ****     *   RX software buffer is enabled: The internal software buffer overflow
 544:Generated_Source\PSoC4/UART_Pi_UART.c ****     *   is not treated as an error condition.
 545:Generated_Source\PSoC4/UART_Pi_UART.c ****     *   Check UART_Pi_rxBufferOverflow to capture that error condition.
 546:Generated_Source\PSoC4/UART_Pi_UART.c ****     *
 547:Generated_Source\PSoC4/UART_Pi_UART.c ****     *******************************************************************************/
 548:Generated_Source\PSoC4/UART_Pi_UART.c ****     uint32 UART_Pi_UartGetByte(void)
 549:Generated_Source\PSoC4/UART_Pi_UART.c ****     {
ARM GAS  C:\Users\ANDRES~1\AppData\Local\Temp\ccmr0GAP.s 			page 18


 421              		.loc 1 549 0
 422              		.cfi_startproc
 423              		@ args = 0, pretend = 0, frame = 8
 424              		@ frame_needed = 1, uses_anonymous_args = 0
 425 0000 80B5     		push	{r7, lr}
 426              		.cfi_def_cfa_offset 8
 427              		.cfi_offset 7, -8
 428              		.cfi_offset 14, -4
 429 0002 82B0     		sub	sp, sp, #8
 430              		.cfi_def_cfa_offset 16
 431 0004 00AF     		add	r7, sp, #0
 432              		.cfi_def_cfa_register 7
 550:Generated_Source\PSoC4/UART_Pi_UART.c ****         uint32 rxData;
 551:Generated_Source\PSoC4/UART_Pi_UART.c ****         uint32 tmpStatus;
 552:Generated_Source\PSoC4/UART_Pi_UART.c **** 
 553:Generated_Source\PSoC4/UART_Pi_UART.c ****         #if (UART_Pi_CHECK_RX_SW_BUFFER)
 554:Generated_Source\PSoC4/UART_Pi_UART.c ****         {
 555:Generated_Source\PSoC4/UART_Pi_UART.c ****             UART_Pi_DisableInt();
 556:Generated_Source\PSoC4/UART_Pi_UART.c ****         }
 557:Generated_Source\PSoC4/UART_Pi_UART.c ****         #endif
 558:Generated_Source\PSoC4/UART_Pi_UART.c **** 
 559:Generated_Source\PSoC4/UART_Pi_UART.c ****         if (0u != UART_Pi_SpiUartGetRxBufferSize())
 433              		.loc 1 559 0
 434 0006 FFF7FEFF 		bl	UART_Pi_SpiUartGetRxBufferSize
 435 000a 031E     		subs	r3, r0, #0
 436 000c 04D0     		beq	.L23
 560:Generated_Source\PSoC4/UART_Pi_UART.c ****         {
 561:Generated_Source\PSoC4/UART_Pi_UART.c ****             /* Enables interrupt to receive more bytes: at least one byte is in
 562:Generated_Source\PSoC4/UART_Pi_UART.c ****             * buffer.
 563:Generated_Source\PSoC4/UART_Pi_UART.c ****             */
 564:Generated_Source\PSoC4/UART_Pi_UART.c ****             #if (UART_Pi_CHECK_RX_SW_BUFFER)
 565:Generated_Source\PSoC4/UART_Pi_UART.c ****             {
 566:Generated_Source\PSoC4/UART_Pi_UART.c ****                 UART_Pi_EnableInt();
 567:Generated_Source\PSoC4/UART_Pi_UART.c ****             }
 568:Generated_Source\PSoC4/UART_Pi_UART.c ****             #endif
 569:Generated_Source\PSoC4/UART_Pi_UART.c **** 
 570:Generated_Source\PSoC4/UART_Pi_UART.c ****             /* Get received byte */
 571:Generated_Source\PSoC4/UART_Pi_UART.c ****             rxData = UART_Pi_SpiUartReadRxData();
 437              		.loc 1 571 0
 438 000e FFF7FEFF 		bl	UART_Pi_SpiUartReadRxData
 439 0012 0300     		movs	r3, r0
 440 0014 7B60     		str	r3, [r7, #4]
 441 0016 02E0     		b	.L24
 442              	.L23:
 572:Generated_Source\PSoC4/UART_Pi_UART.c ****         }
 573:Generated_Source\PSoC4/UART_Pi_UART.c ****         else
 574:Generated_Source\PSoC4/UART_Pi_UART.c ****         {
 575:Generated_Source\PSoC4/UART_Pi_UART.c ****             /* Reads a byte directly from RX FIFO: underflow is raised in the
 576:Generated_Source\PSoC4/UART_Pi_UART.c ****             * case of empty. Otherwise the first received byte will be read.
 577:Generated_Source\PSoC4/UART_Pi_UART.c ****             */
 578:Generated_Source\PSoC4/UART_Pi_UART.c ****             rxData = UART_Pi_RX_FIFO_RD_REG;
 443              		.loc 1 578 0
 444 0018 0B4B     		ldr	r3, .L26
 445 001a 1B68     		ldr	r3, [r3]
 446 001c 7B60     		str	r3, [r7, #4]
 447              	.L24:
 579:Generated_Source\PSoC4/UART_Pi_UART.c **** 
ARM GAS  C:\Users\ANDRES~1\AppData\Local\Temp\ccmr0GAP.s 			page 19


 580:Generated_Source\PSoC4/UART_Pi_UART.c **** 
 581:Generated_Source\PSoC4/UART_Pi_UART.c ****             /* Enables interrupt to receive more bytes. */
 582:Generated_Source\PSoC4/UART_Pi_UART.c ****             #if (UART_Pi_CHECK_RX_SW_BUFFER)
 583:Generated_Source\PSoC4/UART_Pi_UART.c ****             {
 584:Generated_Source\PSoC4/UART_Pi_UART.c **** 
 585:Generated_Source\PSoC4/UART_Pi_UART.c ****                 /* The byte has been read from RX FIFO. Clear RX interrupt to
 586:Generated_Source\PSoC4/UART_Pi_UART.c ****                 * not involve interrupt handler when RX FIFO is empty.
 587:Generated_Source\PSoC4/UART_Pi_UART.c ****                 */
 588:Generated_Source\PSoC4/UART_Pi_UART.c ****                 UART_Pi_ClearRxInterruptSource(UART_Pi_INTR_RX_NOT_EMPTY);
 589:Generated_Source\PSoC4/UART_Pi_UART.c **** 
 590:Generated_Source\PSoC4/UART_Pi_UART.c ****                 UART_Pi_EnableInt();
 591:Generated_Source\PSoC4/UART_Pi_UART.c ****             }
 592:Generated_Source\PSoC4/UART_Pi_UART.c ****             #endif
 593:Generated_Source\PSoC4/UART_Pi_UART.c ****         }
 594:Generated_Source\PSoC4/UART_Pi_UART.c **** 
 595:Generated_Source\PSoC4/UART_Pi_UART.c ****         /* Get and clear RX error mask */
 596:Generated_Source\PSoC4/UART_Pi_UART.c ****         tmpStatus = (UART_Pi_GetRxInterruptSource() & UART_Pi_INTR_RX_ERR);
 448              		.loc 1 596 0
 449 001e 0B4B     		ldr	r3, .L26+4
 450 0020 1A68     		ldr	r2, [r3]
 451 0022 D823     		movs	r3, #216
 452 0024 9B00     		lsls	r3, r3, #2
 453 0026 1340     		ands	r3, r2
 454 0028 3B60     		str	r3, [r7]
 597:Generated_Source\PSoC4/UART_Pi_UART.c ****         UART_Pi_ClearRxInterruptSource(UART_Pi_INTR_RX_ERR);
 455              		.loc 1 597 0
 456 002a 084B     		ldr	r3, .L26+4
 457 002c D822     		movs	r2, #216
 458 002e 9200     		lsls	r2, r2, #2
 459 0030 1A60     		str	r2, [r3]
 598:Generated_Source\PSoC4/UART_Pi_UART.c **** 
 599:Generated_Source\PSoC4/UART_Pi_UART.c ****         /* Puts together data and error status:
 600:Generated_Source\PSoC4/UART_Pi_UART.c ****         * MP mode and accept address: 9th bit is set to notify mark.
 601:Generated_Source\PSoC4/UART_Pi_UART.c ****         */
 602:Generated_Source\PSoC4/UART_Pi_UART.c ****         rxData |= ((uint32) (tmpStatus << 8u));
 460              		.loc 1 602 0
 461 0032 3B68     		ldr	r3, [r7]
 462 0034 1B02     		lsls	r3, r3, #8
 463 0036 7A68     		ldr	r2, [r7, #4]
 464 0038 1343     		orrs	r3, r2
 465 003a 7B60     		str	r3, [r7, #4]
 603:Generated_Source\PSoC4/UART_Pi_UART.c **** 
 604:Generated_Source\PSoC4/UART_Pi_UART.c ****         return (rxData);
 466              		.loc 1 604 0
 467 003c 7B68     		ldr	r3, [r7, #4]
 605:Generated_Source\PSoC4/UART_Pi_UART.c ****     }
 468              		.loc 1 605 0
 469 003e 1800     		movs	r0, r3
 470 0040 BD46     		mov	sp, r7
 471 0042 02B0     		add	sp, sp, #8
 472              		@ sp needed
 473 0044 80BD     		pop	{r7, pc}
 474              	.L27:
 475 0046 C046     		.align	2
 476              	.L26:
 477 0048 40030740 		.word	1074201408
 478 004c C00F0740 		.word	1074204608
ARM GAS  C:\Users\ANDRES~1\AppData\Local\Temp\ccmr0GAP.s 			page 20


 479              		.cfi_endproc
 480              	.LFE6:
 481              		.size	UART_Pi_UartGetByte, .-UART_Pi_UartGetByte
 482              		.section	.text.UART_Pi_UartPutString,"ax",%progbits
 483              		.align	2
 484              		.global	UART_Pi_UartPutString
 485              		.code	16
 486              		.thumb_func
 487              		.type	UART_Pi_UartPutString, %function
 488              	UART_Pi_UartPutString:
 489              	.LFB7:
 606:Generated_Source\PSoC4/UART_Pi_UART.c **** 
 607:Generated_Source\PSoC4/UART_Pi_UART.c **** 
 608:Generated_Source\PSoC4/UART_Pi_UART.c ****     #if !(UART_Pi_CY_SCBIP_V0 || UART_Pi_CY_SCBIP_V1)
 609:Generated_Source\PSoC4/UART_Pi_UART.c ****         /*******************************************************************************
 610:Generated_Source\PSoC4/UART_Pi_UART.c ****         * Function Name: UART_Pi_UartSetRtsPolarity
 611:Generated_Source\PSoC4/UART_Pi_UART.c ****         ****************************************************************************//**
 612:Generated_Source\PSoC4/UART_Pi_UART.c ****         *
 613:Generated_Source\PSoC4/UART_Pi_UART.c ****         *  Sets active polarity of RTS output signal.
 614:Generated_Source\PSoC4/UART_Pi_UART.c ****         *  Only available for PSoC 4100 BLE / PSoC 4200 BLE / PSoC 4100M / PSoC 4200M /
 615:Generated_Source\PSoC4/UART_Pi_UART.c ****         *  PSoC 4200L / PSoC 4000S / PSoC 4100S / PSoC Analog Coprocessor devices.
 616:Generated_Source\PSoC4/UART_Pi_UART.c ****         *
 617:Generated_Source\PSoC4/UART_Pi_UART.c ****         *  \param polarity: Active polarity of RTS output signal.
 618:Generated_Source\PSoC4/UART_Pi_UART.c ****         *   - UART_Pi_UART_RTS_ACTIVE_LOW  - RTS signal is active low.
 619:Generated_Source\PSoC4/UART_Pi_UART.c ****         *   - UART_Pi_UART_RTS_ACTIVE_HIGH - RTS signal is active high.
 620:Generated_Source\PSoC4/UART_Pi_UART.c ****         *
 621:Generated_Source\PSoC4/UART_Pi_UART.c ****         *******************************************************************************/
 622:Generated_Source\PSoC4/UART_Pi_UART.c ****         void UART_Pi_UartSetRtsPolarity(uint32 polarity)
 623:Generated_Source\PSoC4/UART_Pi_UART.c ****         {
 624:Generated_Source\PSoC4/UART_Pi_UART.c ****             if(0u != polarity)
 625:Generated_Source\PSoC4/UART_Pi_UART.c ****             {
 626:Generated_Source\PSoC4/UART_Pi_UART.c ****                 UART_Pi_UART_FLOW_CTRL_REG |= (uint32)  UART_Pi_UART_FLOW_CTRL_RTS_POLARITY;
 627:Generated_Source\PSoC4/UART_Pi_UART.c ****             }
 628:Generated_Source\PSoC4/UART_Pi_UART.c ****             else
 629:Generated_Source\PSoC4/UART_Pi_UART.c ****             {
 630:Generated_Source\PSoC4/UART_Pi_UART.c ****                 UART_Pi_UART_FLOW_CTRL_REG &= (uint32) ~UART_Pi_UART_FLOW_CTRL_RTS_POLARITY;
 631:Generated_Source\PSoC4/UART_Pi_UART.c ****             }
 632:Generated_Source\PSoC4/UART_Pi_UART.c ****         }
 633:Generated_Source\PSoC4/UART_Pi_UART.c **** 
 634:Generated_Source\PSoC4/UART_Pi_UART.c **** 
 635:Generated_Source\PSoC4/UART_Pi_UART.c ****         /*******************************************************************************
 636:Generated_Source\PSoC4/UART_Pi_UART.c ****         * Function Name: UART_Pi_UartSetRtsFifoLevel
 637:Generated_Source\PSoC4/UART_Pi_UART.c ****         ****************************************************************************//**
 638:Generated_Source\PSoC4/UART_Pi_UART.c ****         *
 639:Generated_Source\PSoC4/UART_Pi_UART.c ****         *  Sets level in the RX FIFO for RTS signal activation.
 640:Generated_Source\PSoC4/UART_Pi_UART.c ****         *  While the RX FIFO has fewer entries than the RX FIFO level the RTS signal
 641:Generated_Source\PSoC4/UART_Pi_UART.c ****         *  remains active, otherwise the RTS signal becomes inactive.
 642:Generated_Source\PSoC4/UART_Pi_UART.c ****         *  Only available for PSoC 4100 BLE / PSoC 4200 BLE / PSoC 4100M / PSoC 4200M /
 643:Generated_Source\PSoC4/UART_Pi_UART.c ****         *  PSoC 4200L / PSoC 4000S / PSoC 4100S / PSoC Analog Coprocessor devices.
 644:Generated_Source\PSoC4/UART_Pi_UART.c ****         *
 645:Generated_Source\PSoC4/UART_Pi_UART.c ****         *  \param level: Level in the RX FIFO for RTS signal activation.
 646:Generated_Source\PSoC4/UART_Pi_UART.c ****         *   The range of valid level values is between 0 and RX FIFO depth - 1.
 647:Generated_Source\PSoC4/UART_Pi_UART.c ****         *   Setting level value to 0 disables RTS signal activation.
 648:Generated_Source\PSoC4/UART_Pi_UART.c ****         *
 649:Generated_Source\PSoC4/UART_Pi_UART.c ****         *******************************************************************************/
 650:Generated_Source\PSoC4/UART_Pi_UART.c ****         void UART_Pi_UartSetRtsFifoLevel(uint32 level)
 651:Generated_Source\PSoC4/UART_Pi_UART.c ****         {
ARM GAS  C:\Users\ANDRES~1\AppData\Local\Temp\ccmr0GAP.s 			page 21


 652:Generated_Source\PSoC4/UART_Pi_UART.c ****             uint32 uartFlowCtrl;
 653:Generated_Source\PSoC4/UART_Pi_UART.c **** 
 654:Generated_Source\PSoC4/UART_Pi_UART.c ****             uartFlowCtrl = UART_Pi_UART_FLOW_CTRL_REG;
 655:Generated_Source\PSoC4/UART_Pi_UART.c **** 
 656:Generated_Source\PSoC4/UART_Pi_UART.c ****             uartFlowCtrl &= ((uint32) ~UART_Pi_UART_FLOW_CTRL_TRIGGER_LEVEL_MASK); /* Clear level m
 657:Generated_Source\PSoC4/UART_Pi_UART.c ****             uartFlowCtrl |= ((uint32) (UART_Pi_UART_FLOW_CTRL_TRIGGER_LEVEL_MASK & level));
 658:Generated_Source\PSoC4/UART_Pi_UART.c **** 
 659:Generated_Source\PSoC4/UART_Pi_UART.c ****             UART_Pi_UART_FLOW_CTRL_REG = uartFlowCtrl;
 660:Generated_Source\PSoC4/UART_Pi_UART.c ****         }
 661:Generated_Source\PSoC4/UART_Pi_UART.c ****     #endif /* !(UART_Pi_CY_SCBIP_V0 || UART_Pi_CY_SCBIP_V1) */
 662:Generated_Source\PSoC4/UART_Pi_UART.c **** 
 663:Generated_Source\PSoC4/UART_Pi_UART.c **** #endif /* (UART_Pi_UART_RX_DIRECTION) */
 664:Generated_Source\PSoC4/UART_Pi_UART.c **** 
 665:Generated_Source\PSoC4/UART_Pi_UART.c **** 
 666:Generated_Source\PSoC4/UART_Pi_UART.c **** #if(UART_Pi_UART_TX_DIRECTION)
 667:Generated_Source\PSoC4/UART_Pi_UART.c ****     /*******************************************************************************
 668:Generated_Source\PSoC4/UART_Pi_UART.c ****     * Function Name: UART_Pi_UartPutString
 669:Generated_Source\PSoC4/UART_Pi_UART.c ****     ****************************************************************************//**
 670:Generated_Source\PSoC4/UART_Pi_UART.c ****     *
 671:Generated_Source\PSoC4/UART_Pi_UART.c ****     *  Places a NULL terminated string in the transmit buffer to be sent at the
 672:Generated_Source\PSoC4/UART_Pi_UART.c ****     *  next available bus time.
 673:Generated_Source\PSoC4/UART_Pi_UART.c ****     *  This function is blocking and waits until there is a space available to put
 674:Generated_Source\PSoC4/UART_Pi_UART.c ****     *  requested data in transmit buffer.
 675:Generated_Source\PSoC4/UART_Pi_UART.c ****     *
 676:Generated_Source\PSoC4/UART_Pi_UART.c ****     *  \param string: pointer to the null terminated string array to be placed in the
 677:Generated_Source\PSoC4/UART_Pi_UART.c ****     *   transmit buffer.
 678:Generated_Source\PSoC4/UART_Pi_UART.c ****     *
 679:Generated_Source\PSoC4/UART_Pi_UART.c ****     *******************************************************************************/
 680:Generated_Source\PSoC4/UART_Pi_UART.c ****     void UART_Pi_UartPutString(const char8 string[])
 681:Generated_Source\PSoC4/UART_Pi_UART.c ****     {
 490              		.loc 1 681 0
 491              		.cfi_startproc
 492              		@ args = 0, pretend = 0, frame = 16
 493              		@ frame_needed = 1, uses_anonymous_args = 0
 494 0000 80B5     		push	{r7, lr}
 495              		.cfi_def_cfa_offset 8
 496              		.cfi_offset 7, -8
 497              		.cfi_offset 14, -4
 498 0002 84B0     		sub	sp, sp, #16
 499              		.cfi_def_cfa_offset 24
 500 0004 00AF     		add	r7, sp, #0
 501              		.cfi_def_cfa_register 7
 502 0006 7860     		str	r0, [r7, #4]
 682:Generated_Source\PSoC4/UART_Pi_UART.c ****         uint32 bufIndex;
 683:Generated_Source\PSoC4/UART_Pi_UART.c **** 
 684:Generated_Source\PSoC4/UART_Pi_UART.c ****         bufIndex = 0u;
 503              		.loc 1 684 0
 504 0008 0023     		movs	r3, #0
 505 000a FB60     		str	r3, [r7, #12]
 685:Generated_Source\PSoC4/UART_Pi_UART.c **** 
 686:Generated_Source\PSoC4/UART_Pi_UART.c ****         /* Blocks the control flow until all data has been sent */
 687:Generated_Source\PSoC4/UART_Pi_UART.c ****         while(string[bufIndex] != ((char8) 0))
 506              		.loc 1 687 0
 507 000c 09E0     		b	.L29
 508              	.L30:
 688:Generated_Source\PSoC4/UART_Pi_UART.c ****         {
 689:Generated_Source\PSoC4/UART_Pi_UART.c ****             UART_Pi_UartPutChar((uint32) string[bufIndex]);
ARM GAS  C:\Users\ANDRES~1\AppData\Local\Temp\ccmr0GAP.s 			page 22


 509              		.loc 1 689 0
 510 000e 7A68     		ldr	r2, [r7, #4]
 511 0010 FB68     		ldr	r3, [r7, #12]
 512 0012 D318     		adds	r3, r2, r3
 513 0014 1B78     		ldrb	r3, [r3]
 514 0016 1800     		movs	r0, r3
 515 0018 FFF7FEFF 		bl	UART_Pi_SpiUartWriteTxData
 690:Generated_Source\PSoC4/UART_Pi_UART.c ****             bufIndex++;
 516              		.loc 1 690 0
 517 001c FB68     		ldr	r3, [r7, #12]
 518 001e 0133     		adds	r3, r3, #1
 519 0020 FB60     		str	r3, [r7, #12]
 520              	.L29:
 687:Generated_Source\PSoC4/UART_Pi_UART.c ****         {
 521              		.loc 1 687 0
 522 0022 7A68     		ldr	r2, [r7, #4]
 523 0024 FB68     		ldr	r3, [r7, #12]
 524 0026 D318     		adds	r3, r2, r3
 525 0028 1B78     		ldrb	r3, [r3]
 526 002a 002B     		cmp	r3, #0
 527 002c EFD1     		bne	.L30
 691:Generated_Source\PSoC4/UART_Pi_UART.c ****         }
 692:Generated_Source\PSoC4/UART_Pi_UART.c ****     }
 528              		.loc 1 692 0
 529 002e C046     		nop
 530 0030 BD46     		mov	sp, r7
 531 0032 04B0     		add	sp, sp, #16
 532              		@ sp needed
 533 0034 80BD     		pop	{r7, pc}
 534              		.cfi_endproc
 535              	.LFE7:
 536              		.size	UART_Pi_UartPutString, .-UART_Pi_UartPutString
 537 0036 C046     		.section	.text.UART_Pi_UartPutCRLF,"ax",%progbits
 538              		.align	2
 539              		.global	UART_Pi_UartPutCRLF
 540              		.code	16
 541              		.thumb_func
 542              		.type	UART_Pi_UartPutCRLF, %function
 543              	UART_Pi_UartPutCRLF:
 544              	.LFB8:
 693:Generated_Source\PSoC4/UART_Pi_UART.c **** 
 694:Generated_Source\PSoC4/UART_Pi_UART.c **** 
 695:Generated_Source\PSoC4/UART_Pi_UART.c ****     /*******************************************************************************
 696:Generated_Source\PSoC4/UART_Pi_UART.c ****     * Function Name: UART_Pi_UartPutCRLF
 697:Generated_Source\PSoC4/UART_Pi_UART.c ****     ****************************************************************************//**
 698:Generated_Source\PSoC4/UART_Pi_UART.c ****     *
 699:Generated_Source\PSoC4/UART_Pi_UART.c ****     *  Places byte of data followed by a carriage return (0x0D) and line feed
 700:Generated_Source\PSoC4/UART_Pi_UART.c ****     *  (0x0A) in the transmit buffer.
 701:Generated_Source\PSoC4/UART_Pi_UART.c ****     *  This function is blocking and waits until there is a space available to put
 702:Generated_Source\PSoC4/UART_Pi_UART.c ****     *  all requested data in transmit buffer.
 703:Generated_Source\PSoC4/UART_Pi_UART.c ****     *
 704:Generated_Source\PSoC4/UART_Pi_UART.c ****     *  \param txDataByte: the data to be transmitted.
 705:Generated_Source\PSoC4/UART_Pi_UART.c ****     *
 706:Generated_Source\PSoC4/UART_Pi_UART.c ****     *******************************************************************************/
 707:Generated_Source\PSoC4/UART_Pi_UART.c ****     void UART_Pi_UartPutCRLF(uint32 txDataByte)
 708:Generated_Source\PSoC4/UART_Pi_UART.c ****     {
 545              		.loc 1 708 0
ARM GAS  C:\Users\ANDRES~1\AppData\Local\Temp\ccmr0GAP.s 			page 23


 546              		.cfi_startproc
 547              		@ args = 0, pretend = 0, frame = 8
 548              		@ frame_needed = 1, uses_anonymous_args = 0
 549 0000 80B5     		push	{r7, lr}
 550              		.cfi_def_cfa_offset 8
 551              		.cfi_offset 7, -8
 552              		.cfi_offset 14, -4
 553 0002 82B0     		sub	sp, sp, #8
 554              		.cfi_def_cfa_offset 16
 555 0004 00AF     		add	r7, sp, #0
 556              		.cfi_def_cfa_register 7
 557 0006 7860     		str	r0, [r7, #4]
 709:Generated_Source\PSoC4/UART_Pi_UART.c ****         UART_Pi_UartPutChar(txDataByte);  /* Blocks control flow until all data has been sent */
 558              		.loc 1 709 0
 559 0008 7B68     		ldr	r3, [r7, #4]
 560 000a 1800     		movs	r0, r3
 561 000c FFF7FEFF 		bl	UART_Pi_SpiUartWriteTxData
 710:Generated_Source\PSoC4/UART_Pi_UART.c ****         UART_Pi_UartPutChar(0x0Du);       /* Blocks control flow until all data has been sent */
 562              		.loc 1 710 0
 563 0010 0D20     		movs	r0, #13
 564 0012 FFF7FEFF 		bl	UART_Pi_SpiUartWriteTxData
 711:Generated_Source\PSoC4/UART_Pi_UART.c ****         UART_Pi_UartPutChar(0x0Au);       /* Blocks control flow until all data has been sent */
 565              		.loc 1 711 0
 566 0016 0A20     		movs	r0, #10
 567 0018 FFF7FEFF 		bl	UART_Pi_SpiUartWriteTxData
 712:Generated_Source\PSoC4/UART_Pi_UART.c ****     }
 568              		.loc 1 712 0
 569 001c C046     		nop
 570 001e BD46     		mov	sp, r7
 571 0020 02B0     		add	sp, sp, #8
 572              		@ sp needed
 573 0022 80BD     		pop	{r7, pc}
 574              		.cfi_endproc
 575              	.LFE8:
 576              		.size	UART_Pi_UartPutCRLF, .-UART_Pi_UartPutCRLF
 577              		.section	.text.UART_Pi_UartSendBreakBlocking,"ax",%progbits
 578              		.align	2
 579              		.global	UART_Pi_UartSendBreakBlocking
 580              		.code	16
 581              		.thumb_func
 582              		.type	UART_Pi_UartSendBreakBlocking, %function
 583              	UART_Pi_UartSendBreakBlocking:
 584              	.LFB9:
 713:Generated_Source\PSoC4/UART_Pi_UART.c **** 
 714:Generated_Source\PSoC4/UART_Pi_UART.c **** 
 715:Generated_Source\PSoC4/UART_Pi_UART.c ****     #if !(UART_Pi_CY_SCBIP_V0 || UART_Pi_CY_SCBIP_V1)
 716:Generated_Source\PSoC4/UART_Pi_UART.c ****         /*******************************************************************************
 717:Generated_Source\PSoC4/UART_Pi_UART.c ****         * Function Name: UART_PiSCB_UartEnableCts
 718:Generated_Source\PSoC4/UART_Pi_UART.c ****         ****************************************************************************//**
 719:Generated_Source\PSoC4/UART_Pi_UART.c ****         *
 720:Generated_Source\PSoC4/UART_Pi_UART.c ****         *  Enables usage of CTS input signal by the UART transmitter.
 721:Generated_Source\PSoC4/UART_Pi_UART.c ****         *  Only available for PSoC 4100 BLE / PSoC 4200 BLE / PSoC 4100M / PSoC 4200M /
 722:Generated_Source\PSoC4/UART_Pi_UART.c ****         *  PSoC 4200L / PSoC 4000S / PSoC 4100S / PSoC Analog Coprocessor devices.
 723:Generated_Source\PSoC4/UART_Pi_UART.c ****         *
 724:Generated_Source\PSoC4/UART_Pi_UART.c ****         *******************************************************************************/
 725:Generated_Source\PSoC4/UART_Pi_UART.c ****         void UART_Pi_UartEnableCts(void)
 726:Generated_Source\PSoC4/UART_Pi_UART.c ****         {
ARM GAS  C:\Users\ANDRES~1\AppData\Local\Temp\ccmr0GAP.s 			page 24


 727:Generated_Source\PSoC4/UART_Pi_UART.c ****             UART_Pi_UART_FLOW_CTRL_REG |= (uint32)  UART_Pi_UART_FLOW_CTRL_CTS_ENABLE;
 728:Generated_Source\PSoC4/UART_Pi_UART.c ****         }
 729:Generated_Source\PSoC4/UART_Pi_UART.c **** 
 730:Generated_Source\PSoC4/UART_Pi_UART.c **** 
 731:Generated_Source\PSoC4/UART_Pi_UART.c ****         /*******************************************************************************
 732:Generated_Source\PSoC4/UART_Pi_UART.c ****         * Function Name: UART_Pi_UartDisableCts
 733:Generated_Source\PSoC4/UART_Pi_UART.c ****         ****************************************************************************//**
 734:Generated_Source\PSoC4/UART_Pi_UART.c ****         *
 735:Generated_Source\PSoC4/UART_Pi_UART.c ****         *  Disables usage of CTS input signal by the UART transmitter.
 736:Generated_Source\PSoC4/UART_Pi_UART.c ****         *  Only available for PSoC 4100 BLE / PSoC 4200 BLE / PSoC 4100M / PSoC 4200M /
 737:Generated_Source\PSoC4/UART_Pi_UART.c ****         *  PSoC 4200L / PSoC 4000S / PSoC 4100S / PSoC Analog Coprocessor devices.
 738:Generated_Source\PSoC4/UART_Pi_UART.c ****         *
 739:Generated_Source\PSoC4/UART_Pi_UART.c ****         *******************************************************************************/
 740:Generated_Source\PSoC4/UART_Pi_UART.c ****         void UART_Pi_UartDisableCts(void)
 741:Generated_Source\PSoC4/UART_Pi_UART.c ****         {
 742:Generated_Source\PSoC4/UART_Pi_UART.c ****             UART_Pi_UART_FLOW_CTRL_REG &= (uint32) ~UART_Pi_UART_FLOW_CTRL_CTS_ENABLE;
 743:Generated_Source\PSoC4/UART_Pi_UART.c ****         }
 744:Generated_Source\PSoC4/UART_Pi_UART.c **** 
 745:Generated_Source\PSoC4/UART_Pi_UART.c **** 
 746:Generated_Source\PSoC4/UART_Pi_UART.c ****         /*******************************************************************************
 747:Generated_Source\PSoC4/UART_Pi_UART.c ****         * Function Name: UART_Pi_UartSetCtsPolarity
 748:Generated_Source\PSoC4/UART_Pi_UART.c ****         ****************************************************************************//**
 749:Generated_Source\PSoC4/UART_Pi_UART.c ****         *
 750:Generated_Source\PSoC4/UART_Pi_UART.c ****         *  Sets active polarity of CTS input signal.
 751:Generated_Source\PSoC4/UART_Pi_UART.c ****         *  Only available for PSoC 4100 BLE / PSoC 4200 BLE / PSoC 4100M / PSoC 4200M /
 752:Generated_Source\PSoC4/UART_Pi_UART.c ****         *  PSoC 4200L / PSoC 4000S / PSoC 4100S / PSoC Analog Coprocessor devices.
 753:Generated_Source\PSoC4/UART_Pi_UART.c ****         *
 754:Generated_Source\PSoC4/UART_Pi_UART.c ****         * \param
 755:Generated_Source\PSoC4/UART_Pi_UART.c ****         * polarity: Active polarity of CTS output signal.
 756:Generated_Source\PSoC4/UART_Pi_UART.c ****         *   - UART_Pi_UART_CTS_ACTIVE_LOW  - CTS signal is active low.
 757:Generated_Source\PSoC4/UART_Pi_UART.c ****         *   - UART_Pi_UART_CTS_ACTIVE_HIGH - CTS signal is active high.
 758:Generated_Source\PSoC4/UART_Pi_UART.c ****         *
 759:Generated_Source\PSoC4/UART_Pi_UART.c ****         *******************************************************************************/
 760:Generated_Source\PSoC4/UART_Pi_UART.c ****         void UART_Pi_UartSetCtsPolarity(uint32 polarity)
 761:Generated_Source\PSoC4/UART_Pi_UART.c ****         {
 762:Generated_Source\PSoC4/UART_Pi_UART.c ****             if (0u != polarity)
 763:Generated_Source\PSoC4/UART_Pi_UART.c ****             {
 764:Generated_Source\PSoC4/UART_Pi_UART.c ****                 UART_Pi_UART_FLOW_CTRL_REG |= (uint32)  UART_Pi_UART_FLOW_CTRL_CTS_POLARITY;
 765:Generated_Source\PSoC4/UART_Pi_UART.c ****             }
 766:Generated_Source\PSoC4/UART_Pi_UART.c ****             else
 767:Generated_Source\PSoC4/UART_Pi_UART.c ****             {
 768:Generated_Source\PSoC4/UART_Pi_UART.c ****                 UART_Pi_UART_FLOW_CTRL_REG &= (uint32) ~UART_Pi_UART_FLOW_CTRL_CTS_POLARITY;
 769:Generated_Source\PSoC4/UART_Pi_UART.c ****             }
 770:Generated_Source\PSoC4/UART_Pi_UART.c ****         }
 771:Generated_Source\PSoC4/UART_Pi_UART.c ****     #endif /* !(UART_Pi_CY_SCBIP_V0 || UART_Pi_CY_SCBIP_V1) */
 772:Generated_Source\PSoC4/UART_Pi_UART.c **** 
 773:Generated_Source\PSoC4/UART_Pi_UART.c **** 
 774:Generated_Source\PSoC4/UART_Pi_UART.c ****     /*******************************************************************************
 775:Generated_Source\PSoC4/UART_Pi_UART.c ****     * Function Name: UART_Pi_UartSendBreakBlocking
 776:Generated_Source\PSoC4/UART_Pi_UART.c ****     ****************************************************************************//**
 777:Generated_Source\PSoC4/UART_Pi_UART.c ****     *
 778:Generated_Source\PSoC4/UART_Pi_UART.c ****     * Sends a break condition (logic low) of specified width on UART TX line.
 779:Generated_Source\PSoC4/UART_Pi_UART.c ****     * Blocks until break is completed. Only call this function when UART TX FIFO
 780:Generated_Source\PSoC4/UART_Pi_UART.c ****     * and shifter are empty.
 781:Generated_Source\PSoC4/UART_Pi_UART.c ****     *
 782:Generated_Source\PSoC4/UART_Pi_UART.c ****     * \param breakWidth
 783:Generated_Source\PSoC4/UART_Pi_UART.c ****     * Width of break condition. Valid range is 4 to 16 bits.
ARM GAS  C:\Users\ANDRES~1\AppData\Local\Temp\ccmr0GAP.s 			page 25


 784:Generated_Source\PSoC4/UART_Pi_UART.c ****     *
 785:Generated_Source\PSoC4/UART_Pi_UART.c ****     * \note
 786:Generated_Source\PSoC4/UART_Pi_UART.c ****     * Before sending break all UART TX interrupt sources are disabled. The state
 787:Generated_Source\PSoC4/UART_Pi_UART.c ****     * of UART TX interrupt sources is restored before function returns.
 788:Generated_Source\PSoC4/UART_Pi_UART.c ****     *
 789:Generated_Source\PSoC4/UART_Pi_UART.c ****     * \sideeffect
 790:Generated_Source\PSoC4/UART_Pi_UART.c ****     * If this function is called while there is data in the TX FIFO or shifter that
 791:Generated_Source\PSoC4/UART_Pi_UART.c ****     * data will be shifted out in packets the size of breakWidth.
 792:Generated_Source\PSoC4/UART_Pi_UART.c ****     *
 793:Generated_Source\PSoC4/UART_Pi_UART.c ****     *******************************************************************************/
 794:Generated_Source\PSoC4/UART_Pi_UART.c ****     void UART_Pi_UartSendBreakBlocking(uint32 breakWidth)
 795:Generated_Source\PSoC4/UART_Pi_UART.c ****     {
 585              		.loc 1 795 0
 586              		.cfi_startproc
 587              		@ args = 0, pretend = 0, frame = 16
 588              		@ frame_needed = 1, uses_anonymous_args = 0
 589 0000 80B5     		push	{r7, lr}
 590              		.cfi_def_cfa_offset 8
 591              		.cfi_offset 7, -8
 592              		.cfi_offset 14, -4
 593 0002 84B0     		sub	sp, sp, #16
 594              		.cfi_def_cfa_offset 24
 595 0004 00AF     		add	r7, sp, #0
 596              		.cfi_def_cfa_register 7
 597 0006 7860     		str	r0, [r7, #4]
 796:Generated_Source\PSoC4/UART_Pi_UART.c ****         uint32 txCtrlReg;
 797:Generated_Source\PSoC4/UART_Pi_UART.c ****         uint32 txIntrReg;
 798:Generated_Source\PSoC4/UART_Pi_UART.c **** 
 799:Generated_Source\PSoC4/UART_Pi_UART.c ****         /* Disable all UART TX interrupt source and clear UART TX Done history */
 800:Generated_Source\PSoC4/UART_Pi_UART.c ****         txIntrReg = UART_Pi_GetTxInterruptMode();
 598              		.loc 1 800 0
 599 0008 174B     		ldr	r3, .L34
 600 000a 1B68     		ldr	r3, [r3]
 601 000c FB60     		str	r3, [r7, #12]
 801:Generated_Source\PSoC4/UART_Pi_UART.c ****         UART_Pi_SetTxInterruptMode(0u);
 602              		.loc 1 801 0
 603 000e 164B     		ldr	r3, .L34
 604 0010 0022     		movs	r2, #0
 605 0012 1A60     		str	r2, [r3]
 802:Generated_Source\PSoC4/UART_Pi_UART.c ****         UART_Pi_ClearTxInterruptSource(UART_Pi_INTR_TX_UART_DONE);
 606              		.loc 1 802 0
 607 0014 154B     		ldr	r3, .L34+4
 608 0016 8022     		movs	r2, #128
 609 0018 9200     		lsls	r2, r2, #2
 610 001a 1A60     		str	r2, [r3]
 803:Generated_Source\PSoC4/UART_Pi_UART.c **** 
 804:Generated_Source\PSoC4/UART_Pi_UART.c ****         /* Store TX CTRL configuration */
 805:Generated_Source\PSoC4/UART_Pi_UART.c ****         txCtrlReg = UART_Pi_TX_CTRL_REG;
 611              		.loc 1 805 0
 612 001c 144B     		ldr	r3, .L34+8
 613 001e 1B68     		ldr	r3, [r3]
 614 0020 BB60     		str	r3, [r7, #8]
 806:Generated_Source\PSoC4/UART_Pi_UART.c **** 
 807:Generated_Source\PSoC4/UART_Pi_UART.c ****         /* Set break width */
 808:Generated_Source\PSoC4/UART_Pi_UART.c ****         UART_Pi_TX_CTRL_REG = (UART_Pi_TX_CTRL_REG & (uint32) ~UART_Pi_TX_CTRL_DATA_WIDTH_MASK) |
 615              		.loc 1 808 0
 616 0022 134B     		ldr	r3, .L34+8
ARM GAS  C:\Users\ANDRES~1\AppData\Local\Temp\ccmr0GAP.s 			page 26


 617 0024 124A     		ldr	r2, .L34+8
 618 0026 1268     		ldr	r2, [r2]
 619 0028 0F21     		movs	r1, #15
 620 002a 8A43     		bics	r2, r1
 621 002c 1100     		movs	r1, r2
 809:Generated_Source\PSoC4/UART_Pi_UART.c ****                                         UART_Pi_GET_TX_CTRL_DATA_WIDTH(breakWidth);
 622              		.loc 1 809 0
 623 002e 7A68     		ldr	r2, [r7, #4]
 624 0030 013A     		subs	r2, r2, #1
 625 0032 0F20     		movs	r0, #15
 626 0034 0240     		ands	r2, r0
 808:Generated_Source\PSoC4/UART_Pi_UART.c ****                                         UART_Pi_GET_TX_CTRL_DATA_WIDTH(breakWidth);
 627              		.loc 1 808 0
 628 0036 0A43     		orrs	r2, r1
 629 0038 1A60     		str	r2, [r3]
 810:Generated_Source\PSoC4/UART_Pi_UART.c **** 
 811:Generated_Source\PSoC4/UART_Pi_UART.c ****         /* Generate break */
 812:Generated_Source\PSoC4/UART_Pi_UART.c ****         UART_Pi_TX_FIFO_WR_REG = 0u;
 630              		.loc 1 812 0
 631 003a 0E4B     		ldr	r3, .L34+12
 632 003c 0022     		movs	r2, #0
 633 003e 1A60     		str	r2, [r3]
 813:Generated_Source\PSoC4/UART_Pi_UART.c **** 
 814:Generated_Source\PSoC4/UART_Pi_UART.c ****         /* Wait for break completion */
 815:Generated_Source\PSoC4/UART_Pi_UART.c ****         while (0u == (UART_Pi_GetTxInterruptSource() & UART_Pi_INTR_TX_UART_DONE))
 634              		.loc 1 815 0
 635 0040 C046     		nop
 636              	.L33:
 637              		.loc 1 815 0 is_stmt 0 discriminator 1
 638 0042 0A4B     		ldr	r3, .L34+4
 639 0044 1A68     		ldr	r2, [r3]
 640 0046 8023     		movs	r3, #128
 641 0048 9B00     		lsls	r3, r3, #2
 642 004a 1340     		ands	r3, r2
 643 004c F9D0     		beq	.L33
 816:Generated_Source\PSoC4/UART_Pi_UART.c ****         {
 817:Generated_Source\PSoC4/UART_Pi_UART.c ****         }
 818:Generated_Source\PSoC4/UART_Pi_UART.c **** 
 819:Generated_Source\PSoC4/UART_Pi_UART.c ****         /* Clear all UART TX interrupt sources to  */
 820:Generated_Source\PSoC4/UART_Pi_UART.c ****         UART_Pi_ClearTxInterruptSource(UART_Pi_INTR_TX_ALL);
 644              		.loc 1 820 0 is_stmt 1
 645 004e 074B     		ldr	r3, .L34+4
 646 0050 094A     		ldr	r2, .L34+16
 647 0052 1A60     		str	r2, [r3]
 821:Generated_Source\PSoC4/UART_Pi_UART.c **** 
 822:Generated_Source\PSoC4/UART_Pi_UART.c ****         /* Restore TX interrupt sources and data width */
 823:Generated_Source\PSoC4/UART_Pi_UART.c ****         UART_Pi_TX_CTRL_REG = txCtrlReg;
 648              		.loc 1 823 0
 649 0054 064B     		ldr	r3, .L34+8
 650 0056 BA68     		ldr	r2, [r7, #8]
 651 0058 1A60     		str	r2, [r3]
 824:Generated_Source\PSoC4/UART_Pi_UART.c ****         UART_Pi_SetTxInterruptMode(txIntrReg);
 652              		.loc 1 824 0
 653 005a 034B     		ldr	r3, .L34
 654 005c FA68     		ldr	r2, [r7, #12]
 655 005e 1A60     		str	r2, [r3]
 825:Generated_Source\PSoC4/UART_Pi_UART.c ****     }
ARM GAS  C:\Users\ANDRES~1\AppData\Local\Temp\ccmr0GAP.s 			page 27


 656              		.loc 1 825 0
 657 0060 C046     		nop
 658 0062 BD46     		mov	sp, r7
 659 0064 04B0     		add	sp, sp, #16
 660              		@ sp needed
 661 0066 80BD     		pop	{r7, pc}
 662              	.L35:
 663              		.align	2
 664              	.L34:
 665 0068 880F0740 		.word	1074204552
 666 006c 800F0740 		.word	1074204544
 667 0070 00020740 		.word	1074201088
 668 0074 40020740 		.word	1074201152
 669 0078 F3070000 		.word	2035
 670              		.cfi_endproc
 671              	.LFE9:
 672              		.size	UART_Pi_UartSendBreakBlocking, .-UART_Pi_UartSendBreakBlocking
 673              		.text
 674              	.Letext0:
 675              		.file 2 "Generated_Source\\PSoC4/cytypes.h"
 676              		.file 3 "Generated_Source\\PSoC4\\UART_Pi_PVT.h"